
main.elf:     file format elf32-sh


Disassembly of section .text:

06010060 <_SetVblank>:

void UsrVblankIn(void);
void UsrVblankOut(void);
void CheckVblankEnd(void);

void SetVblank(void) {
 6010060:	2f e6       	mov.l	r14,@-r15
 6010062:	4f 22       	sts.l	pr,@-r15
 6010064:	7f f8       	add	#-8,r15
 6010066:	6e f3       	mov	r15,r14
	// Wait for vblank out interrupt
	
	INT_ChgMsk(INT_MSK_NULL, INT_MSK_VBLK_IN | INT_MSK_VBLK_OUT);
 6010068:	d1 23       	mov.l	60100f8 <_SetVblank+0x98>,r1	! 6000344
 601006a:	61 12       	mov.l	@r1,r1
 601006c:	e5 03       	mov	#3,r5
 601006e:	e4 ff       	mov	#-1,r4
 6010070:	41 0b       	jsr	@r1
 6010072:	00 09       	nop	
	INT_SetScuFunc(INT_SCU_VBLK_OUT, CheckVblankEnd);
 6010074:	d1 21       	mov.l	60100fc <_SetVblank+0x9c>,r1	! 6000300
 6010076:	61 12       	mov.l	@r1,r1
 6010078:	d2 21       	mov.l	6010100 <_SetVblank+0xa0>,r2	! 6010118 <_CheckVblankEnd>
 601007a:	65 23       	mov	r2,r5
 601007c:	e4 41       	mov	#65,r4
 601007e:	41 0b       	jsr	@r1
 6010080:	00 09       	nop	
	INT_ChgMsk(INT_MSK_VBLK_OUT, INT_MSK_NULL);
 6010082:	d1 1d       	mov.l	60100f8 <_SetVblank+0x98>,r1	! 6000344
 6010084:	61 12       	mov.l	@r1,r1
 6010086:	e5 00       	mov	#0,r5
 6010088:	e4 fd       	mov	#-3,r4
 601008a:	41 0b       	jsr	@r1
 601008c:	00 09       	nop	

	perFlag = 1;
 601008e:	d1 1d       	mov.l	6010104 <_SetVblank+0xa4>,r1	! 601f128 <_perFlag>
 6010090:	e2 01       	mov	#1,r2
 6010092:	21 22       	mov.l	r2,@r1
	while (perFlag);
 6010094:	00 09       	nop	
 6010096:	d1 1b       	mov.l	6010104 <_SetVblank+0xa4>,r1	! 601f128 <_perFlag>
 6010098:	61 12       	mov.l	@r1,r1
 601009a:	21 18       	tst	r1,r1
 601009c:	8b fb       	bf	6010096 <_SetVblank+0x36>
    
	PER_Init(PER_KD_PERTIM, 2, PER_ID_DGT, PER_SIZE_DGT, PadWorkArea, 0);
 601009e:	e1 00       	mov	#0,r1
 60100a0:	1f 11       	mov.l	r1,@(4,r15)
 60100a2:	d1 19       	mov.l	6010108 <_SetVblank+0xa8>,r1	! 601f10c <_PadWorkArea>
 60100a4:	2f 12       	mov.l	r1,@r15
 60100a6:	e7 02       	mov	#2,r7
 60100a8:	e6 00       	mov	#0,r6
 60100aa:	e5 02       	mov	#2,r5
 60100ac:	e4 02       	mov	#2,r4
 60100ae:	d1 17       	mov.l	601010c <_SetVblank+0xac>,r1	! 6018484 <_PER_Init>
 60100b0:	41 0b       	jsr	@r1
 60100b2:	00 09       	nop	

	// Register vblank routine
	INT_ChgMsk(INT_MSK_NULL, INT_MSK_VBLK_IN | INT_MSK_VBLK_OUT);
 60100b4:	d1 10       	mov.l	60100f8 <_SetVblank+0x98>,r1	! 6000344
 60100b6:	61 12       	mov.l	@r1,r1
 60100b8:	e5 03       	mov	#3,r5
 60100ba:	e4 ff       	mov	#-1,r4
 60100bc:	41 0b       	jsr	@r1
 60100be:	00 09       	nop	
	INT_SetScuFunc(INT_SCU_VBLK_IN, UsrVblankIn);
 60100c0:	d1 0e       	mov.l	60100fc <_SetVblank+0x9c>,r1	! 6000300
 60100c2:	61 12       	mov.l	@r1,r1
 60100c4:	d2 12       	mov.l	6010110 <_SetVblank+0xb0>,r2	! 6010130 <_UsrVblankIn>
 60100c6:	65 23       	mov	r2,r5
 60100c8:	e4 40       	mov	#64,r4
 60100ca:	41 0b       	jsr	@r1
 60100cc:	00 09       	nop	
	INT_SetScuFunc(INT_SCU_VBLK_OUT, UsrVblankOut);
 60100ce:	d1 0b       	mov.l	60100fc <_SetVblank+0x9c>,r1	! 6000300
 60100d0:	61 12       	mov.l	@r1,r1
 60100d2:	d2 10       	mov.l	6010114 <_SetVblank+0xb4>,r2	! 601014c <_UsrVblankOut>
 60100d4:	65 23       	mov	r2,r5
 60100d6:	e4 41       	mov	#65,r4
 60100d8:	41 0b       	jsr	@r1
 60100da:	00 09       	nop	
	INT_ChgMsk(INT_MSK_VBLK_IN | INT_MSK_VBLK_OUT, INT_MSK_NULL);
 60100dc:	d1 06       	mov.l	60100f8 <_SetVblank+0x98>,r1	! 6000344
 60100de:	61 12       	mov.l	@r1,r1
 60100e0:	e5 00       	mov	#0,r5
 60100e2:	e4 fc       	mov	#-4,r4
 60100e4:	41 0b       	jsr	@r1
 60100e6:	00 09       	nop	
}
 60100e8:	00 09       	nop	
 60100ea:	7e 08       	add	#8,r14
 60100ec:	6f e3       	mov	r14,r15
 60100ee:	4f 26       	lds.l	@r15+,pr
 60100f0:	6e f6       	mov.l	@r15+,r14
 60100f2:	00 0b       	rts	
 60100f4:	00 09       	nop	
 60100f6:	00 09       	nop	
 60100f8:	06 00       	.word 0x0600
 60100fa:	03 44       	mov.b	r4,@(r0,r3)
 60100fc:	06 00       	.word 0x0600
 60100fe:	03 00       	.word 0x0300
 6010100:	06 01       	.word 0x0601
 6010102:	01 18       	.word 0x0118
 6010104:	06 01       	.word 0x0601
 6010106:	f1 28       	.word 0xf128
 6010108:	06 01       	.word 0x0601
 601010a:	f1 0c       	.word 0xf10c
 601010c:	06 01       	.word 0x0601
 601010e:	84 84       	mov.b	@(4,r8),r0
 6010110:	06 01       	.word 0x0601
 6010112:	01 30       	.word 0x0130
 6010114:	06 01       	.word 0x0601
 6010116:	01 4c       	mov.b	@(r0,r4),r1

06010118 <_CheckVblankEnd>:


void CheckVblankEnd(void) {
 6010118:	2f e6       	mov.l	r14,@-r15
 601011a:	6e f3       	mov	r15,r14
	perFlag = 0;
 601011c:	d1 03       	mov.l	601012c <_CheckVblankEnd+0x14>,r1	! 601f128 <_perFlag>
 601011e:	e2 00       	mov	#0,r2
 6010120:	21 22       	mov.l	r2,@r1
}
 6010122:	00 09       	nop	
 6010124:	6f e3       	mov	r14,r15
 6010126:	6e f6       	mov.l	@r15+,r14
 6010128:	00 0b       	rts	
 601012a:	00 09       	nop	
 601012c:	06 01       	.word 0x0601
 601012e:	f1 28       	.word 0xf128

06010130 <_UsrVblankIn>:

void UsrVblankIn(void) {
 6010130:	2f e6       	mov.l	r14,@-r15
 6010132:	4f 22       	sts.l	pr,@-r15
 6010134:	6e f3       	mov	r15,r14
	SCL_VblankStart();
 6010136:	d1 04       	mov.l	6010148 <_UsrVblankIn+0x18>,r1	! 601c3cc <_SCL_VblankStart>
 6010138:	41 0b       	jsr	@r1
 601013a:	00 09       	nop	
}
 601013c:	00 09       	nop	
 601013e:	6f e3       	mov	r14,r15
 6010140:	4f 26       	lds.l	@r15+,pr
 6010142:	6e f6       	mov.l	@r15+,r14
 6010144:	00 0b       	rts	
 6010146:	00 09       	nop	
 6010148:	06 01       	.word 0x0601
 601014a:	c3 cc       	trapa	#204

0601014c <_UsrVblankOut>:

void UsrVblankOut(void) {
 601014c:	2f e6       	mov.l	r14,@-r15
 601014e:	4f 22       	sts.l	pr,@-r15
 6010150:	7f fc       	add	#-4,r15
 6010152:	6e f3       	mov	r15,r14
	SCL_VblankEnd();
 6010154:	d1 29       	mov.l	60101fc <_UsrVblankOut+0xb0>,r1	! 601c49c <_SCL_VblankEnd>
 6010156:	41 0b       	jsr	@r1
 6010158:	00 09       	nop	
	
	PerDgtInfo *pad;
	PER_GetPer((PerGetPer **)&pad);
 601015a:	61 e3       	mov	r14,r1
 601015c:	64 13       	mov	r1,r4
 601015e:	d1 28       	mov.l	6010200 <_UsrVblankOut+0xb4>,r1	! 601862c <_PER_GetPer>
 6010160:	41 0b       	jsr	@r1
 6010162:	00 09       	nop	
	if (pad != NULL) {
 6010164:	61 e3       	mov	r14,r1
 6010166:	71 c4       	add	#-60,r1
 6010168:	51 1f       	mov.l	@(60,r1),r1
 601016a:	21 18       	tst	r1,r1
 601016c:	89 36       	bt	60101dc <_UsrVblankOut+0x90>
		PadData1L = PadData1;
 601016e:	d1 25       	mov.l	6010204 <_UsrVblankOut+0xb8>,r1	! 601f100 <_PadData1>
 6010170:	61 11       	mov.w	@r1,r1
 6010172:	62 1d       	extu.w	r1,r2
 6010174:	d1 24       	mov.l	6010208 <_UsrVblankOut+0xbc>,r1	! 601f102 <_PadData1L>
 6010176:	21 21       	mov.w	r2,@r1
		PadData2L = PadData2;
 6010178:	d1 24       	mov.l	601020c <_UsrVblankOut+0xc0>,r1	! 601f106 <_PadData2>
 601017a:	61 11       	mov.w	@r1,r1
 601017c:	62 1d       	extu.w	r1,r2
 601017e:	d1 24       	mov.l	6010210 <_UsrVblankOut+0xc4>,r1	! 601f108 <_PadData2L>
 6010180:	21 21       	mov.w	r2,@r1

		PadData1  = pad[0].data ^ 0xffff;
 6010182:	61 e3       	mov	r14,r1
 6010184:	71 c4       	add	#-60,r1
 6010186:	51 1f       	mov.l	@(60,r1),r1
 6010188:	61 11       	mov.w	@r1,r1
 601018a:	61 1d       	extu.w	r1,r1
 601018c:	61 17       	not	r1,r1
 601018e:	62 1d       	extu.w	r1,r2
 6010190:	d1 1c       	mov.l	6010204 <_UsrVblankOut+0xb8>,r1	! 601f100 <_PadData1>
 6010192:	21 21       	mov.w	r2,@r1
		PadData1E = (PadData1L ^ ALL_BUTTONS) & PadData1;
 6010194:	d1 1c       	mov.l	6010208 <_UsrVblankOut+0xbc>,r1	! 601f102 <_PadData1L>
 6010196:	61 11       	mov.w	@r1,r1
 6010198:	62 1d       	extu.w	r1,r2
 601019a:	e1 f8       	mov	#-8,r1
 601019c:	21 2a       	xor	r2,r1
 601019e:	62 1d       	extu.w	r1,r2
 60101a0:	d1 18       	mov.l	6010204 <_UsrVblankOut+0xb8>,r1	! 601f100 <_PadData1>
 60101a2:	61 11       	mov.w	@r1,r1
 60101a4:	61 1d       	extu.w	r1,r1
 60101a6:	21 29       	and	r2,r1
 60101a8:	62 1d       	extu.w	r1,r2
 60101aa:	d1 1a       	mov.l	6010214 <_UsrVblankOut+0xc8>,r1	! 601f104 <_PadData1E>
 60101ac:	21 21       	mov.w	r2,@r1
		PadData2  = pad[1].data ^ 0xffff;
 60101ae:	61 e3       	mov	r14,r1
 60101b0:	71 c4       	add	#-60,r1
 60101b2:	51 1f       	mov.l	@(60,r1),r1
 60101b4:	71 06       	add	#6,r1
 60101b6:	61 11       	mov.w	@r1,r1
 60101b8:	61 1d       	extu.w	r1,r1
 60101ba:	61 17       	not	r1,r1
 60101bc:	62 1d       	extu.w	r1,r2
 60101be:	d1 13       	mov.l	601020c <_UsrVblankOut+0xc0>,r1	! 601f106 <_PadData2>
 60101c0:	21 21       	mov.w	r2,@r1
		PadData2E = (PadData2L ^ ALL_BUTTONS) & PadData2;
 60101c2:	d1 13       	mov.l	6010210 <_UsrVblankOut+0xc4>,r1	! 601f108 <_PadData2L>
 60101c4:	61 11       	mov.w	@r1,r1
 60101c6:	62 1d       	extu.w	r1,r2
 60101c8:	e1 f8       	mov	#-8,r1
 60101ca:	21 2a       	xor	r2,r1
 60101cc:	62 1d       	extu.w	r1,r2
 60101ce:	d1 0f       	mov.l	601020c <_UsrVblankOut+0xc0>,r1	! 601f106 <_PadData2>
 60101d0:	61 11       	mov.w	@r1,r1
 60101d2:	61 1d       	extu.w	r1,r1
 60101d4:	21 29       	and	r2,r1
 60101d6:	62 1d       	extu.w	r1,r2
 60101d8:	d1 0f       	mov.l	6010218 <_UsrVblankOut+0xcc>,r1	! 601f10a <_PadData2E>
 60101da:	21 21       	mov.w	r2,@r1
	}
	VblankFlg = 0;
 60101dc:	d1 0f       	mov.l	601021c <_UsrVblankOut+0xd0>,r1	! 601f12c <_VblankFlg>
 60101de:	e2 00       	mov	#0,r2
 60101e0:	21 22       	mov.l	r2,@r1
	vblank_frames++;
 60101e2:	d1 0f       	mov.l	6010220 <_UsrVblankOut+0xd4>,r1	! 601f130 <_vblank_frames>
 60101e4:	61 12       	mov.l	@r1,r1
 60101e6:	62 13       	mov	r1,r2
 60101e8:	72 01       	add	#1,r2
 60101ea:	d1 0d       	mov.l	6010220 <_UsrVblankOut+0xd4>,r1	! 601f130 <_vblank_frames>
 60101ec:	21 22       	mov.l	r2,@r1
}
 60101ee:	00 09       	nop	
 60101f0:	7e 04       	add	#4,r14
 60101f2:	6f e3       	mov	r14,r15
 60101f4:	4f 26       	lds.l	@r15+,pr
 60101f6:	6e f6       	mov.l	@r15+,r14
 60101f8:	00 0b       	rts	
 60101fa:	00 09       	nop	
 60101fc:	06 01       	.word 0x0601
 60101fe:	c4 9c       	mov.b	@(156,gbr),r0
 6010200:	06 01       	.word 0x0601
 6010202:	86 2c       	.word 0x862c
 6010204:	06 01       	.word 0x0601
 6010206:	f1 00       	.word 0xf100
 6010208:	06 01       	.word 0x0601
 601020a:	f1 02       	.word 0xf102
 601020c:	06 01       	.word 0x0601
 601020e:	f1 06       	.word 0xf106
 6010210:	06 01       	.word 0x0601
 6010212:	f1 08       	.word 0xf108
 6010214:	06 01       	.word 0x0601
 6010216:	f1 04       	.word 0xf104
 6010218:	06 01       	.word 0x0601
 601021a:	f1 0a       	.word 0xf10a
 601021c:	06 01       	.word 0x0601
 601021e:	f1 2c       	.word 0xf12c
 6010220:	06 01       	.word 0x0601
 6010222:	f1 30       	.word 0xf130

06010224 <_CD_Init>:
static Uint32 workArea[GFS_WORK_SIZE(MAX_OPEN) / sizeof(Uint32)]; //library work area

static GfsDirTbl dirTable; //directory info management struct
static GfsDirName dirname[MAX_DIR]; //list of all filenames

void CD_Init(void) {
 6010224:	2f e6       	mov.l	r14,@-r15
 6010226:	4f 22       	sts.l	pr,@-r15
 6010228:	6e f3       	mov	r15,r14
    if (!DEVCART_LOAD) {
        GFS_DIRTBL_TYPE(&dirTable) = GFS_DIR_NAME;
 601022a:	d1 0b       	mov.l	6010258 <_CD_Init+0x34>,r1	! 601fe3c <_dirTable>
 601022c:	e2 01       	mov	#1,r2
 601022e:	21 22       	mov.l	r2,@r1
        GFS_DIRTBL_DIRNAME(&dirTable) = dirname;
 6010230:	d1 09       	mov.l	6010258 <_CD_Init+0x34>,r1	! 601fe3c <_dirTable>
 6010232:	d2 0a       	mov.l	601025c <_CD_Init+0x38>,r2	! 601fe48 <_dirname>
 6010234:	11 22       	mov.l	r2,@(8,r1)
        GFS_DIRTBL_NDIR(&dirTable) = MAX_DIR;
 6010236:	d1 08       	mov.l	6010258 <_CD_Init+0x34>,r1	! 601fe3c <_dirTable>
 6010238:	e2 64       	mov	#100,r2
 601023a:	11 21       	mov.l	r2,@(4,r1)
        GFS_Init(MAX_OPEN, workArea, &dirTable);
 601023c:	d2 06       	mov.l	6010258 <_CD_Init+0x34>,r2	! 601fe3c <_dirTable>
 601023e:	d1 08       	mov.l	6010260 <_CD_Init+0x3c>,r1	! 601f134 <_workArea>
 6010240:	66 23       	mov	r2,r6
 6010242:	65 13       	mov	r1,r5
 6010244:	e4 01       	mov	#1,r4
 6010246:	d1 07       	mov.l	6010264 <_CD_Init+0x40>,r1	! 6014040 <_GFS_Init>
 6010248:	41 0b       	jsr	@r1
 601024a:	00 09       	nop	
    }
}
 601024c:	00 09       	nop	
 601024e:	6f e3       	mov	r14,r15
 6010250:	4f 26       	lds.l	@r15+,pr
 6010252:	6e f6       	mov.l	@r15+,r14
 6010254:	00 0b       	rts	
 6010256:	00 09       	nop	
 6010258:	06 01       	.word 0x0601
 601025a:	fe 3c       	.word 0xfe3c
 601025c:	06 01       	.word 0x0601
 601025e:	fe 48       	.word 0xfe48
 6010260:	06 01       	.word 0x0601
 6010262:	f1 34       	.word 0xf134
 6010264:	06 01       	.word 0x0601
 6010266:	40 40       	.word 0x4040

06010268 <_CD_ChangeDir>:

void CD_ChangeDir(char *directory) {
 6010268:	2f 86       	mov.l	r8,@-r15
 601026a:	2f e6       	mov.l	r14,@-r15
 601026c:	4f 22       	sts.l	pr,@-r15
 601026e:	7f f8       	add	#-8,r15
 6010270:	6e f3       	mov	r15,r14
 6010272:	61 e3       	mov	r14,r1
 6010274:	71 c8       	add	#-56,r1
 6010276:	11 4e       	mov.l	r4,@(56,r1)
    Sint32 id = GFS_NameToId((Sint8 *)directory);
 6010278:	68 e3       	mov	r14,r8
 601027a:	78 c8       	add	#-56,r8
 601027c:	61 e3       	mov	r14,r1
 601027e:	71 c8       	add	#-56,r1
 6010280:	54 1e       	mov.l	@(56,r1),r4
 6010282:	d1 11       	mov.l	60102c8 <_CD_ChangeDir+0x60>,r1	! 6012e38 <_GFS_NameToId>
 6010284:	41 0b       	jsr	@r1
 6010286:	00 09       	nop	
 6010288:	61 03       	mov	r0,r1
 601028a:	18 1f       	mov.l	r1,@(60,r8)
    GFS_DIRTBL_TYPE(&dirTable) = GFS_DIR_NAME;
 601028c:	d1 0f       	mov.l	60102cc <_CD_ChangeDir+0x64>,r1	! 601fe3c <_dirTable>
 601028e:	e2 01       	mov	#1,r2
 6010290:	21 22       	mov.l	r2,@r1
    GFS_DIRTBL_DIRNAME(&dirTable) = dirname;
 6010292:	d1 0e       	mov.l	60102cc <_CD_ChangeDir+0x64>,r1	! 601fe3c <_dirTable>
 6010294:	d2 0e       	mov.l	60102d0 <_CD_ChangeDir+0x68>,r2	! 601fe48 <_dirname>
 6010296:	11 22       	mov.l	r2,@(8,r1)
    GFS_DIRTBL_NDIR(&dirTable) = MAX_DIR;
 6010298:	d1 0c       	mov.l	60102cc <_CD_ChangeDir+0x64>,r1	! 601fe3c <_dirTable>
 601029a:	e2 64       	mov	#100,r2
 601029c:	11 21       	mov.l	r2,@(4,r1)
    GFS_LoadDir(id, &dirTable);
 601029e:	d2 0b       	mov.l	60102cc <_CD_ChangeDir+0x64>,r2	! 601fe3c <_dirTable>
 60102a0:	61 e3       	mov	r14,r1
 60102a2:	71 c8       	add	#-56,r1
 60102a4:	65 23       	mov	r2,r5
 60102a6:	54 1f       	mov.l	@(60,r1),r4
 60102a8:	d1 0a       	mov.l	60102d4 <_CD_ChangeDir+0x6c>,r1	! 60139fc <_GFS_LoadDir>
 60102aa:	41 0b       	jsr	@r1
 60102ac:	00 09       	nop	
    GFS_SetDir(&dirTable);
 60102ae:	d1 07       	mov.l	60102cc <_CD_ChangeDir+0x64>,r1	! 601fe3c <_dirTable>
 60102b0:	64 13       	mov	r1,r4
 60102b2:	d1 09       	mov.l	60102d8 <_CD_ChangeDir+0x70>,r1	! 6012dd4 <_GFS_SetDir>
 60102b4:	41 0b       	jsr	@r1
 60102b6:	00 09       	nop	
}
 60102b8:	00 09       	nop	
 60102ba:	7e 08       	add	#8,r14
 60102bc:	6f e3       	mov	r14,r15
 60102be:	4f 26       	lds.l	@r15+,pr
 60102c0:	6e f6       	mov.l	@r15+,r14
 60102c2:	68 f6       	mov.l	@r15+,r8
 60102c4:	00 0b       	rts	
 60102c6:	00 09       	nop	
 60102c8:	06 01       	.word 0x0601
 60102ca:	2e 38       	tst	r3,r14
 60102cc:	06 01       	.word 0x0601
 60102ce:	fe 3c       	.word 0xfe3c
 60102d0:	06 01       	.word 0x0601
 60102d2:	fe 48       	.word 0xfe48
 60102d4:	06 01       	.word 0x0601
 60102d6:	39 fc       	add	r15,r9
 60102d8:	06 01       	.word 0x0601
 60102da:	2d d4       	mov.b	r13,@-r13

060102dc <_CD_Load>:
 * read data off the cd
 * filename: duh
 * dataBuf: where you want to copy the data to
 * returns number of bytes read
 */
Sint32 CD_Load(char *filename, void *dataBuf) {
 60102dc:	2f 86       	mov.l	r8,@-r15
 60102de:	2f e6       	mov.l	r14,@-r15
 60102e0:	4f 22       	sts.l	pr,@-r15
 60102e2:	7f ec       	add	#-20,r15
 60102e4:	6e f3       	mov	r15,r14
 60102e6:	61 e3       	mov	r14,r1
 60102e8:	71 d4       	add	#-44,r1
 60102ea:	11 4d       	mov.l	r4,@(52,r1)
 60102ec:	61 e3       	mov	r14,r1
 60102ee:	71 d4       	add	#-44,r1
 60102f0:	11 5c       	mov.l	r5,@(48,r1)
        return Devcart_LoadFile(filename, dataBuf);
    }
    else {
        Sint32 size;

        GfsHn gfs = GFS_Open(GFS_NameToId((Sint8 *)filename));
 60102f2:	61 e3       	mov	r14,r1
 60102f4:	71 d4       	add	#-44,r1
 60102f6:	54 1d       	mov.l	@(52,r1),r4
 60102f8:	d1 24       	mov.l	601038c <_CD_Load+0xb0>,r1	! 6012e38 <_GFS_NameToId>
 60102fa:	41 0b       	jsr	@r1
 60102fc:	00 09       	nop	
 60102fe:	61 03       	mov	r0,r1
 6010300:	68 e3       	mov	r14,r8
 6010302:	78 d4       	add	#-44,r8
 6010304:	64 13       	mov	r1,r4
 6010306:	d1 22       	mov.l	6010390 <_CD_Load+0xb4>,r1	! 60131a0 <_GFS_Open>
 6010308:	41 0b       	jsr	@r1
 601030a:	00 09       	nop	
 601030c:	61 03       	mov	r0,r1
 601030e:	18 1f       	mov.l	r1,@(60,r8)
        GFS_GetFileInfo(gfs, NULL, NULL, &size, NULL);
 6010310:	63 e3       	mov	r14,r3
 6010312:	73 0c       	add	#12,r3
 6010314:	61 e3       	mov	r14,r1
 6010316:	71 d4       	add	#-44,r1
 6010318:	e2 00       	mov	#0,r2
 601031a:	2f 22       	mov.l	r2,@r15
 601031c:	67 33       	mov	r3,r7
 601031e:	e6 00       	mov	#0,r6
 6010320:	e5 00       	mov	#0,r5
 6010322:	54 1f       	mov.l	@(60,r1),r4
 6010324:	d1 1b       	mov.l	6010394 <_CD_Load+0xb8>,r1	! 6013558 <_GFS_GetFileInfo>
 6010326:	41 0b       	jsr	@r1
 6010328:	00 09       	nop	
        //make sure we read at least one sector
        GFS_Fread(gfs, size < SECT_SIZE ? 1 : (size >> 11) + 1, dataBuf, size);
 601032a:	61 e3       	mov	r14,r1
 601032c:	71 d4       	add	#-44,r1
 601032e:	52 1e       	mov.l	@(56,r1),r2
 6010330:	91 2b       	mov.w	601038a <_CD_Load+0xae>,r1	! 7ff
 6010332:	32 17       	cmp/gt	r1,r2
 6010334:	8b 0a       	bf	601034c <_CD_Load+0x70>
 6010336:	61 e3       	mov	r14,r1
 6010338:	71 d4       	add	#-44,r1
 601033a:	51 1e       	mov.l	@(56,r1),r1
 601033c:	64 13       	mov	r1,r4
 601033e:	d1 16       	mov.l	6010398 <_CD_Load+0xbc>,r1	! 601df3e <___ashiftrt_r4_11>
 6010340:	41 0b       	jsr	@r1
 6010342:	00 09       	nop	
 6010344:	61 43       	mov	r4,r1
 6010346:	71 01       	add	#1,r1
 6010348:	a0 01       	bra	601034e <_CD_Load+0x72>
 601034a:	00 09       	nop	
 601034c:	e1 01       	mov	#1,r1
 601034e:	62 e3       	mov	r14,r2
 6010350:	72 d4       	add	#-44,r2
 6010352:	57 2e       	mov.l	@(56,r2),r7
 6010354:	63 e3       	mov	r14,r3
 6010356:	73 d4       	add	#-44,r3
 6010358:	62 e3       	mov	r14,r2
 601035a:	72 d4       	add	#-44,r2
 601035c:	56 3c       	mov.l	@(48,r3),r6
 601035e:	65 13       	mov	r1,r5
 6010360:	54 2f       	mov.l	@(60,r2),r4
 6010362:	d1 0e       	mov.l	601039c <_CD_Load+0xc0>,r1	! 6013c5c <_GFS_Fread>
 6010364:	41 0b       	jsr	@r1
 6010366:	00 09       	nop	
        GFS_Close(gfs);
 6010368:	61 e3       	mov	r14,r1
 601036a:	71 d4       	add	#-44,r1
 601036c:	54 1f       	mov.l	@(60,r1),r4
 601036e:	d1 0c       	mov.l	60103a0 <_CD_Load+0xc4>,r1	! 60139c4 <_GFS_Close>
 6010370:	41 0b       	jsr	@r1
 6010372:	00 09       	nop	
        return size;
 6010374:	61 e3       	mov	r14,r1
 6010376:	71 d4       	add	#-44,r1
 6010378:	51 1e       	mov.l	@(56,r1),r1
    }
}
 601037a:	60 13       	mov	r1,r0
 601037c:	7e 14       	add	#20,r14
 601037e:	6f e3       	mov	r14,r15
 6010380:	4f 26       	lds.l	@r15+,pr
 6010382:	6e f6       	mov.l	@r15+,r14
 6010384:	68 f6       	mov.l	@r15+,r8
 6010386:	00 0b       	rts	
 6010388:	00 09       	nop	
 601038a:	07 ff       	mac.l	@r15+,@r7+
 601038c:	06 01       	.word 0x0601
 601038e:	2e 38       	tst	r3,r14
 6010390:	06 01       	.word 0x0601
 6010392:	31 a0       	cmp/eq	r10,r1
 6010394:	06 01       	.word 0x0601
 6010396:	35 58       	sub	r5,r5
 6010398:	06 01       	.word 0x0601
 601039a:	df 3e       	mov.l	6010494 <_Devcart_GetByte+0x22>,r15	! 90009
 601039c:	06 01       	.word 0x0601
 601039e:	3c 5c       	add	r5,r12
 60103a0:	06 01       	.word 0x0601
 60103a2:	39 c4       	div1	r12,r9

060103a4 <_crc_update>:
 * \param data     Pointer to a buffer of \a data_len bytes.
 * \param data_len Number of bytes in the \a data buffer.
 * \return         The updated crc value.
 *****************************************************************************/
crc_t crc_update(crc_t crc, const unsigned char *data, size_t data_len)
{
 60103a4:	2f e6       	mov.l	r14,@-r15
 60103a6:	7f f0       	add	#-16,r15
 60103a8:	6e f3       	mov	r15,r14
 60103aa:	62 43       	mov	r4,r2
 60103ac:	61 e3       	mov	r14,r1
 60103ae:	71 d0       	add	#-48,r1
 60103b0:	11 5d       	mov.l	r5,@(52,r1)
 60103b2:	61 e3       	mov	r14,r1
 60103b4:	71 d0       	add	#-48,r1
 60103b6:	11 6c       	mov.l	r6,@(48,r1)
 60103b8:	61 e3       	mov	r14,r1
 60103ba:	60 23       	mov	r2,r0
 60103bc:	80 18       	mov.b	r0,@(8,r1)
    unsigned int tbl_idx;

    while (data_len--) {
 60103be:	a0 27       	bra	6010410 <_crc_update+0x6c>
 60103c0:	00 09       	nop	
        tbl_idx = ((crc >> 0) ^ *data) & 0xff;
 60103c2:	61 e3       	mov	r14,r1
 60103c4:	71 d0       	add	#-48,r1
 60103c6:	51 1d       	mov.l	@(52,r1),r1
 60103c8:	61 10       	mov.b	@r1,r1
 60103ca:	62 1c       	extu.b	r1,r2
 60103cc:	61 e3       	mov	r14,r1
 60103ce:	84 18       	mov.b	@(8,r1),r0
 60103d0:	61 03       	mov	r0,r1
 60103d2:	21 2a       	xor	r2,r1
 60103d4:	62 1c       	extu.b	r1,r2
 60103d6:	61 e3       	mov	r14,r1
 60103d8:	71 d0       	add	#-48,r1
 60103da:	11 2f       	mov.l	r2,@(60,r1)
        crc = (crc_table[tbl_idx] ^ (crc << 8)) & 0xff;
 60103dc:	d2 16       	mov.l	6010438 <_crc_update+0x94>,r2	! 601ed68 <_crc_table>
 60103de:	61 e3       	mov	r14,r1
 60103e0:	71 d0       	add	#-48,r1
 60103e2:	51 1f       	mov.l	@(60,r1),r1
 60103e4:	31 2c       	add	r2,r1
 60103e6:	61 10       	mov.b	@r1,r1
 60103e8:	61 1c       	extu.b	r1,r1
 60103ea:	62 1e       	exts.b	r1,r2
 60103ec:	61 e3       	mov	r14,r1
 60103ee:	84 18       	mov.b	@(8,r1),r0
 60103f0:	61 03       	mov	r0,r1
 60103f2:	61 1c       	extu.b	r1,r1
 60103f4:	41 18       	shll8	r1
 60103f6:	61 1e       	exts.b	r1,r1
 60103f8:	21 2a       	xor	r2,r1
 60103fa:	62 1e       	exts.b	r1,r2
 60103fc:	61 e3       	mov	r14,r1
 60103fe:	60 23       	mov	r2,r0
 6010400:	80 18       	mov.b	r0,@(8,r1)

        data++;
 6010402:	61 e3       	mov	r14,r1
 6010404:	71 d0       	add	#-48,r1
 6010406:	62 e3       	mov	r14,r2
 6010408:	72 d0       	add	#-48,r2
 601040a:	52 2d       	mov.l	@(52,r2),r2
 601040c:	72 01       	add	#1,r2
 601040e:	11 2d       	mov.l	r2,@(52,r1)
    while (data_len--) {
 6010410:	61 e3       	mov	r14,r1
 6010412:	71 d0       	add	#-48,r1
 6010414:	51 1c       	mov.l	@(48,r1),r1
 6010416:	62 e3       	mov	r14,r2
 6010418:	72 d0       	add	#-48,r2
 601041a:	63 13       	mov	r1,r3
 601041c:	73 ff       	add	#-1,r3
 601041e:	12 3c       	mov.l	r3,@(48,r2)
 6010420:	21 18       	tst	r1,r1
 6010422:	8b ce       	bf	60103c2 <_crc_update+0x1e>
    }
    return crc & 0xff;
 6010424:	61 e3       	mov	r14,r1
 6010426:	84 18       	mov.b	@(8,r1),r0
 6010428:	61 03       	mov	r0,r1
 601042a:	61 1c       	extu.b	r1,r1
}
 601042c:	60 13       	mov	r1,r0
 601042e:	7e 10       	add	#16,r14
 6010430:	6f e3       	mov	r14,r15
 6010432:	6e f6       	mov.l	@r15+,r14
 6010434:	00 0b       	rts	
 6010436:	00 09       	nop	
 6010438:	06 01       	.word 0x0601
 601043a:	ed 68       	mov	#104,r13

0601043c <_crc_init>:
 * Calculate the initial crc value.
 *
 * \return     The initial crc value.
 *****************************************************************************/
static inline crc_t crc_init(void)
{
 601043c:	2f e6       	mov.l	r14,@-r15
 601043e:	6e f3       	mov	r15,r14
    return 0x00;
 6010440:	e1 00       	mov	#0,r1
}
 6010442:	60 13       	mov	r1,r0
 6010444:	6f e3       	mov	r14,r15
 6010446:	6e f6       	mov.l	@r15+,r14
 6010448:	00 0b       	rts	
 601044a:	00 09       	nop	

0601044c <_crc_finalize>:
 *
 * \param crc  The current crc value.
 * \return     The final crc value.
 *****************************************************************************/
static inline crc_t crc_finalize(crc_t crc)
{
 601044c:	2f e6       	mov.l	r14,@-r15
 601044e:	7f fc       	add	#-4,r15
 6010450:	6e f3       	mov	r15,r14
 6010452:	62 43       	mov	r4,r2
 6010454:	61 e3       	mov	r14,r1
 6010456:	71 f4       	add	#-12,r1
 6010458:	60 23       	mov	r2,r0
 601045a:	80 1c       	mov.b	r0,@(12,r1)
    return crc ^ 0x00;
 601045c:	61 e3       	mov	r14,r1
 601045e:	71 f4       	add	#-12,r1
 6010460:	84 1c       	mov.b	@(12,r1),r0
 6010462:	61 03       	mov	r0,r1
 6010464:	61 1c       	extu.b	r1,r1
}
 6010466:	60 13       	mov	r1,r0
 6010468:	7e 04       	add	#4,r14
 601046a:	6f e3       	mov	r14,r15
 601046c:	6e f6       	mov.l	@r15+,r14
 601046e:	00 0b       	rts	
 6010470:	00 09       	nop	

06010472 <_Devcart_GetByte>:
    FUNC_EXEC,
    FUNC_PRINT,
    FUNC_QUIT
};

static inline Uint8 Devcart_GetByte(void) {
 6010472:	2f e6       	mov.l	r14,@-r15
 6010474:	6e f3       	mov	r15,r14
    while ((USB_FLAGS & USB_RXF) != 0);
 6010476:	00 09       	nop	
 6010478:	d1 07       	mov.l	6010498 <_Devcart_GetByte+0x26>,r1	! 22200001
 601047a:	61 10       	mov.b	@r1,r1
 601047c:	61 1c       	extu.b	r1,r1
 601047e:	e2 01       	mov	#1,r2
 6010480:	21 29       	and	r2,r1
 6010482:	21 18       	tst	r1,r1
 6010484:	8b f8       	bf	6010478 <_Devcart_GetByte+0x6>
    return USB_FIFO;
 6010486:	d1 05       	mov.l	601049c <_Devcart_GetByte+0x2a>,r1	! 22100001
 6010488:	61 10       	mov.b	@r1,r1
 601048a:	61 1c       	extu.b	r1,r1
}
 601048c:	60 13       	mov	r1,r0
 601048e:	6f e3       	mov	r14,r15
 6010490:	6e f6       	mov.l	@r15+,r14
 6010492:	00 0b       	rts	
 6010494:	00 09       	nop	
 6010496:	00 09       	nop	
 6010498:	22 20       	mov.b	r2,@r2
 601049a:	00 01       	.word 0x0001
 601049c:	22 10       	mov.b	r1,@r2
 601049e:	00 01       	.word 0x0001

060104a0 <_Devcart_GetDword>:

static Uint32 Devcart_GetDword(void) {
 60104a0:	2f 86       	mov.l	r8,@-r15
 60104a2:	2f e6       	mov.l	r14,@-r15
 60104a4:	4f 22       	sts.l	pr,@-r15
 60104a6:	7f fc       	add	#-4,r15
 60104a8:	6e f3       	mov	r15,r14
    Uint32 tmp = Devcart_GetByte();
 60104aa:	d1 1e       	mov.l	6010524 <_Devcart_GetDword+0x84>,r1	! 6010472 <_Devcart_GetByte>
 60104ac:	41 0b       	jsr	@r1
 60104ae:	00 09       	nop	
 60104b0:	61 03       	mov	r0,r1
 60104b2:	62 13       	mov	r1,r2
 60104b4:	61 e3       	mov	r14,r1
 60104b6:	71 c4       	add	#-60,r1
 60104b8:	11 2f       	mov.l	r2,@(60,r1)
    tmp = (tmp << 8) | Devcart_GetByte();
 60104ba:	61 e3       	mov	r14,r1
 60104bc:	71 c4       	add	#-60,r1
 60104be:	51 1f       	mov.l	@(60,r1),r1
 60104c0:	68 13       	mov	r1,r8
 60104c2:	48 18       	shll8	r8
 60104c4:	d1 17       	mov.l	6010524 <_Devcart_GetDword+0x84>,r1	! 6010472 <_Devcart_GetByte>
 60104c6:	41 0b       	jsr	@r1
 60104c8:	00 09       	nop	
 60104ca:	61 03       	mov	r0,r1
 60104cc:	62 13       	mov	r1,r2
 60104ce:	61 e3       	mov	r14,r1
 60104d0:	71 c4       	add	#-60,r1
 60104d2:	22 8b       	or	r8,r2
 60104d4:	11 2f       	mov.l	r2,@(60,r1)
    tmp = (tmp << 8) | Devcart_GetByte();
 60104d6:	61 e3       	mov	r14,r1
 60104d8:	71 c4       	add	#-60,r1
 60104da:	51 1f       	mov.l	@(60,r1),r1
 60104dc:	68 13       	mov	r1,r8
 60104de:	48 18       	shll8	r8
 60104e0:	d1 10       	mov.l	6010524 <_Devcart_GetDword+0x84>,r1	! 6010472 <_Devcart_GetByte>
 60104e2:	41 0b       	jsr	@r1
 60104e4:	00 09       	nop	
 60104e6:	61 03       	mov	r0,r1
 60104e8:	62 13       	mov	r1,r2
 60104ea:	61 e3       	mov	r14,r1
 60104ec:	71 c4       	add	#-60,r1
 60104ee:	22 8b       	or	r8,r2
 60104f0:	11 2f       	mov.l	r2,@(60,r1)
    tmp = (tmp << 8) | Devcart_GetByte();
 60104f2:	61 e3       	mov	r14,r1
 60104f4:	71 c4       	add	#-60,r1
 60104f6:	51 1f       	mov.l	@(60,r1),r1
 60104f8:	68 13       	mov	r1,r8
 60104fa:	48 18       	shll8	r8
 60104fc:	d1 09       	mov.l	6010524 <_Devcart_GetDword+0x84>,r1	! 6010472 <_Devcart_GetByte>
 60104fe:	41 0b       	jsr	@r1
 6010500:	00 09       	nop	
 6010502:	61 03       	mov	r0,r1
 6010504:	62 13       	mov	r1,r2
 6010506:	61 e3       	mov	r14,r1
 6010508:	71 c4       	add	#-60,r1
 601050a:	22 8b       	or	r8,r2
 601050c:	11 2f       	mov.l	r2,@(60,r1)

    return tmp;
 601050e:	61 e3       	mov	r14,r1
 6010510:	71 c4       	add	#-60,r1
 6010512:	51 1f       	mov.l	@(60,r1),r1
}
 6010514:	60 13       	mov	r1,r0
 6010516:	7e 04       	add	#4,r14
 6010518:	6f e3       	mov	r14,r15
 601051a:	4f 26       	lds.l	@r15+,pr
 601051c:	6e f6       	mov.l	@r15+,r14
 601051e:	68 f6       	mov.l	@r15+,r8
 6010520:	00 0b       	rts	
 6010522:	00 09       	nop	
 6010524:	06 01       	.word 0x0601
 6010526:	04 72       	.word 0x0472

06010528 <_Devcart_PutByte>:

static inline void Devcart_PutByte(Uint8 byte) {
 6010528:	2f e6       	mov.l	r14,@-r15
 601052a:	7f fc       	add	#-4,r15
 601052c:	6e f3       	mov	r15,r14
 601052e:	62 43       	mov	r4,r2
 6010530:	61 e3       	mov	r14,r1
 6010532:	71 f4       	add	#-12,r1
 6010534:	60 23       	mov	r2,r0
 6010536:	80 1c       	mov.b	r0,@(12,r1)
    while ((USB_FLAGS & USB_TXE) != 0);
 6010538:	00 09       	nop	
 601053a:	d1 09       	mov.l	6010560 <_Devcart_PutByte+0x38>,r1	! 22200001
 601053c:	61 10       	mov.b	@r1,r1
 601053e:	61 1c       	extu.b	r1,r1
 6010540:	e2 02       	mov	#2,r2
 6010542:	21 29       	and	r2,r1
 6010544:	21 18       	tst	r1,r1
 6010546:	8b f8       	bf	601053a <_Devcart_PutByte+0x12>
    USB_FIFO = byte;
 6010548:	d1 06       	mov.l	6010564 <_Devcart_PutByte+0x3c>,r1	! 22100001
 601054a:	62 e3       	mov	r14,r2
 601054c:	72 f4       	add	#-12,r2
 601054e:	84 2c       	mov.b	@(12,r2),r0
 6010550:	62 03       	mov	r0,r2
 6010552:	21 20       	mov.b	r2,@r1
}
 6010554:	00 09       	nop	
 6010556:	7e 04       	add	#4,r14
 6010558:	6f e3       	mov	r14,r15
 601055a:	6e f6       	mov.l	@r15+,r14
 601055c:	00 0b       	rts	
 601055e:	00 09       	nop	
 6010560:	22 20       	mov.b	r2,@r2
 6010562:	00 01       	.word 0x0001
 6010564:	22 10       	mov.b	r1,@r2
 6010566:	00 01       	.word 0x0001

06010568 <_Devcart_LoadFile>:

int Devcart_LoadFile(char *filename, void *dest) {
 6010568:	2f 86       	mov.l	r8,@-r15
 601056a:	2f e6       	mov.l	r14,@-r15
 601056c:	4f 22       	sts.l	pr,@-r15
 601056e:	7f e0       	add	#-32,r15
 6010570:	6e f3       	mov	r15,r14
 6010572:	61 e3       	mov	r14,r1
 6010574:	71 e0       	add	#-32,r1
 6010576:	11 49       	mov.l	r4,@(36,r1)
 6010578:	61 e3       	mov	r14,r1
 601057a:	71 e0       	add	#-32,r1
 601057c:	11 58       	mov.l	r5,@(32,r1)
    Uint8 *ptr = (Uint8 *)dest;
 601057e:	61 e3       	mov	r14,r1
 6010580:	71 e0       	add	#-32,r1
 6010582:	62 e3       	mov	r14,r2
 6010584:	72 e0       	add	#-32,r2
 6010586:	52 28       	mov.l	@(32,r2),r2
 6010588:	11 2d       	mov.l	r2,@(52,r1)
    Uint8 letter;
    int len;
    crc_t readchecksum;
    crc_t checksum = crc_init();
 601058a:	68 e3       	mov	r14,r8
 601058c:	78 10       	add	#16,r8
 601058e:	d1 59       	mov.l	60106f4 <_Devcart_LoadFile+0x18c>,r1	! 601043c <_crc_init>
 6010590:	41 0b       	jsr	@r1
 6010592:	00 09       	nop	
 6010594:	61 03       	mov	r0,r1
 6010596:	60 13       	mov	r1,r0
 6010598:	80 83       	mov.b	r0,@(3,r8)

    //tell server we want to download a file
    Devcart_PutByte(FUNC_DOWNLOAD);
 601059a:	e4 01       	mov	#1,r4
 601059c:	d1 56       	mov.l	60106f8 <_Devcart_LoadFile+0x190>,r1	! 6010528 <_Devcart_PutByte>
 601059e:	41 0b       	jsr	@r1
 60105a0:	00 09       	nop	
    //tell server the filename we want to download
    for (int i = 0;; i++) {
 60105a2:	61 e3       	mov	r14,r1
 60105a4:	71 e0       	add	#-32,r1
 60105a6:	e2 00       	mov	#0,r2
 60105a8:	11 2f       	mov.l	r2,@(60,r1)
        letter = (Uint8)filename[i];
 60105aa:	61 e3       	mov	r14,r1
 60105ac:	71 e0       	add	#-32,r1
 60105ae:	51 1f       	mov.l	@(60,r1),r1
 60105b0:	62 e3       	mov	r14,r2
 60105b2:	72 e0       	add	#-32,r2
 60105b4:	52 29       	mov.l	@(36,r2),r2
 60105b6:	31 2c       	add	r2,r1
 60105b8:	62 10       	mov.b	@r1,r2
 60105ba:	61 e3       	mov	r14,r1
 60105bc:	71 10       	add	#16,r1
 60105be:	60 23       	mov	r2,r0
 60105c0:	80 12       	mov.b	r0,@(2,r1)
        Devcart_PutByte(letter);
 60105c2:	61 e3       	mov	r14,r1
 60105c4:	71 10       	add	#16,r1
 60105c6:	84 12       	mov.b	@(2,r1),r0
 60105c8:	61 03       	mov	r0,r1
 60105ca:	61 1c       	extu.b	r1,r1
 60105cc:	64 13       	mov	r1,r4
 60105ce:	d1 4a       	mov.l	60106f8 <_Devcart_LoadFile+0x190>,r1	! 6010528 <_Devcart_PutByte>
 60105d0:	41 0b       	jsr	@r1
 60105d2:	00 09       	nop	
        if (letter == '\0') {
 60105d4:	61 e3       	mov	r14,r1
 60105d6:	71 10       	add	#16,r1
 60105d8:	84 12       	mov.b	@(2,r1),r0
 60105da:	61 03       	mov	r0,r1
 60105dc:	61 1c       	extu.b	r1,r1
 60105de:	21 18       	tst	r1,r1
 60105e0:	89 08       	bt	60105f4 <_Devcart_LoadFile+0x8c>
    for (int i = 0;; i++) {
 60105e2:	61 e3       	mov	r14,r1
 60105e4:	71 e0       	add	#-32,r1
 60105e6:	62 e3       	mov	r14,r2
 60105e8:	72 e0       	add	#-32,r2
 60105ea:	52 2f       	mov.l	@(60,r2),r2
 60105ec:	72 01       	add	#1,r2
 60105ee:	11 2f       	mov.l	r2,@(60,r1)
        letter = (Uint8)filename[i];
 60105f0:	af db       	bra	60105aa <_Devcart_LoadFile+0x42>
 60105f2:	00 09       	nop	
            break;
 60105f4:	00 09       	nop	
        }
    }

    //pc server will send "upload" command back, read that byte
    Devcart_GetByte();
 60105f6:	d1 41       	mov.l	60106fc <_Devcart_LoadFile+0x194>,r1	! 6010472 <_Devcart_GetByte>
 60105f8:	41 0b       	jsr	@r1
 60105fa:	00 09       	nop	
    //pc server sends address first, this is unnecessary since we're
    //specifying it
    Devcart_GetDword();
 60105fc:	d1 40       	mov.l	6010700 <_Devcart_LoadFile+0x198>,r1	! 60104a0 <_Devcart_GetDword>
 60105fe:	41 0b       	jsr	@r1
 6010600:	00 09       	nop	
    len = (int)Devcart_GetDword(); //file length
 6010602:	d1 3f       	mov.l	6010700 <_Devcart_LoadFile+0x198>,r1	! 60104a0 <_Devcart_GetDword>
 6010604:	41 0b       	jsr	@r1
 6010606:	00 09       	nop	
 6010608:	61 03       	mov	r0,r1
 601060a:	62 e3       	mov	r14,r2
 601060c:	72 e0       	add	#-32,r2
 601060e:	12 1b       	mov.l	r1,@(44,r2)

    for (int i = 0; i < len; i++) {
 6010610:	61 e3       	mov	r14,r1
 6010612:	71 e0       	add	#-32,r1
 6010614:	e2 00       	mov	#0,r2
 6010616:	11 2e       	mov.l	r2,@(56,r1)
 6010618:	a0 1a       	bra	6010650 <_Devcart_LoadFile+0xe8>
 601061a:	00 09       	nop	
        // inlining is 20K/s faster
        while ((USB_FLAGS & USB_RXF) != 0);
 601061c:	00 09       	nop	
 601061e:	d1 39       	mov.l	6010704 <_Devcart_LoadFile+0x19c>,r1	! 22200001
 6010620:	61 10       	mov.b	@r1,r1
 6010622:	61 1c       	extu.b	r1,r1
 6010624:	e2 01       	mov	#1,r2
 6010626:	21 29       	and	r2,r1
 6010628:	21 18       	tst	r1,r1
 601062a:	8b f8       	bf	601061e <_Devcart_LoadFile+0xb6>
        ptr[i] = USB_FIFO;
 601062c:	d2 36       	mov.l	6010708 <_Devcart_LoadFile+0x1a0>,r2	! 22100001
 601062e:	61 e3       	mov	r14,r1
 6010630:	71 e0       	add	#-32,r1
 6010632:	51 1e       	mov.l	@(56,r1),r1
 6010634:	63 e3       	mov	r14,r3
 6010636:	73 e0       	add	#-32,r3
 6010638:	53 3d       	mov.l	@(52,r3),r3
 601063a:	31 3c       	add	r3,r1
 601063c:	62 20       	mov.b	@r2,r2
 601063e:	62 2c       	extu.b	r2,r2
 6010640:	21 20       	mov.b	r2,@r1
    for (int i = 0; i < len; i++) {
 6010642:	61 e3       	mov	r14,r1
 6010644:	71 e0       	add	#-32,r1
 6010646:	62 e3       	mov	r14,r2
 6010648:	72 e0       	add	#-32,r2
 601064a:	52 2e       	mov.l	@(56,r2),r2
 601064c:	72 01       	add	#1,r2
 601064e:	11 2e       	mov.l	r2,@(56,r1)
 6010650:	62 e3       	mov	r14,r2
 6010652:	72 e0       	add	#-32,r2
 6010654:	61 e3       	mov	r14,r1
 6010656:	71 e0       	add	#-32,r1
 6010658:	52 2e       	mov.l	@(56,r2),r2
 601065a:	51 1b       	mov.l	@(44,r1),r1
 601065c:	32 13       	cmp/ge	r1,r2
 601065e:	8b dd       	bf	601061c <_Devcart_LoadFile+0xb4>
    }

    readchecksum = Devcart_GetByte();
 6010660:	68 e3       	mov	r14,r8
 6010662:	d1 26       	mov.l	60106fc <_Devcart_LoadFile+0x194>,r1	! 6010472 <_Devcart_GetByte>
 6010664:	41 0b       	jsr	@r1
 6010666:	00 09       	nop	
 6010668:	61 03       	mov	r0,r1
 601066a:	60 13       	mov	r1,r0
 601066c:	80 8b       	mov.b	r0,@(11,r8)

    checksum = crc_update(checksum, ptr, len);
 601066e:	61 e3       	mov	r14,r1
 6010670:	71 10       	add	#16,r1
 6010672:	84 13       	mov.b	@(3,r1),r0
 6010674:	61 03       	mov	r0,r1
 6010676:	62 1c       	extu.b	r1,r2
 6010678:	61 e3       	mov	r14,r1
 601067a:	71 e0       	add	#-32,r1
 601067c:	53 1b       	mov.l	@(44,r1),r3
 601067e:	68 e3       	mov	r14,r8
 6010680:	78 10       	add	#16,r8
 6010682:	61 e3       	mov	r14,r1
 6010684:	71 e0       	add	#-32,r1
 6010686:	66 33       	mov	r3,r6
 6010688:	55 1d       	mov.l	@(52,r1),r5
 601068a:	64 23       	mov	r2,r4
 601068c:	d1 1f       	mov.l	601070c <_Devcart_LoadFile+0x1a4>,r1	! 60103a4 <_crc_update>
 601068e:	41 0b       	jsr	@r1
 6010690:	00 09       	nop	
 6010692:	61 03       	mov	r0,r1
 6010694:	60 13       	mov	r1,r0
 6010696:	80 83       	mov.b	r0,@(3,r8)
    checksum = crc_finalize(checksum);
 6010698:	61 e3       	mov	r14,r1
 601069a:	71 10       	add	#16,r1
 601069c:	84 13       	mov.b	@(3,r1),r0
 601069e:	61 03       	mov	r0,r1
 60106a0:	61 1c       	extu.b	r1,r1
 60106a2:	68 e3       	mov	r14,r8
 60106a4:	78 10       	add	#16,r8
 60106a6:	64 13       	mov	r1,r4
 60106a8:	d1 19       	mov.l	6010710 <_Devcart_LoadFile+0x1a8>,r1	! 601044c <_crc_finalize>
 60106aa:	41 0b       	jsr	@r1
 60106ac:	00 09       	nop	
 60106ae:	61 03       	mov	r0,r1
 60106b0:	60 13       	mov	r1,r0
 60106b2:	80 83       	mov.b	r0,@(3,r8)

    if (checksum != readchecksum) {
 60106b4:	62 e3       	mov	r14,r2
 60106b6:	72 10       	add	#16,r2
 60106b8:	61 e3       	mov	r14,r1
 60106ba:	84 23       	mov.b	@(3,r2),r0
 60106bc:	62 03       	mov	r0,r2
 60106be:	62 2c       	extu.b	r2,r2
 60106c0:	84 1b       	mov.b	@(11,r1),r0
 60106c2:	61 03       	mov	r0,r1
 60106c4:	61 1c       	extu.b	r1,r1
 60106c6:	32 10       	cmp/eq	r1,r2
 60106c8:	89 05       	bt	60106d6 <_Devcart_LoadFile+0x16e>
        Devcart_PutByte(0x1);
 60106ca:	e4 01       	mov	#1,r4
 60106cc:	d1 0a       	mov.l	60106f8 <_Devcart_LoadFile+0x190>,r1	! 6010528 <_Devcart_PutByte>
 60106ce:	41 0b       	jsr	@r1
 60106d0:	00 09       	nop	
 60106d2:	a0 04       	bra	60106de <_Devcart_LoadFile+0x176>
 60106d4:	00 09       	nop	
    }
    else {
        Devcart_PutByte(0);
 60106d6:	e4 00       	mov	#0,r4
 60106d8:	d1 07       	mov.l	60106f8 <_Devcart_LoadFile+0x190>,r1	! 6010528 <_Devcart_PutByte>
 60106da:	41 0b       	jsr	@r1
 60106dc:	00 09       	nop	
    }

    return (int)len;
 60106de:	61 e3       	mov	r14,r1
 60106e0:	71 e0       	add	#-32,r1
 60106e2:	51 1b       	mov.l	@(44,r1),r1
}
 60106e4:	60 13       	mov	r1,r0
 60106e6:	7e 20       	add	#32,r14
 60106e8:	6f e3       	mov	r14,r15
 60106ea:	4f 26       	lds.l	@r15+,pr
 60106ec:	6e f6       	mov.l	@r15+,r14
 60106ee:	68 f6       	mov.l	@r15+,r8
 60106f0:	00 0b       	rts	
 60106f2:	00 09       	nop	
 60106f4:	06 01       	.word 0x0601
 60106f6:	04 3c       	mov.b	@(r0,r3),r4
 60106f8:	06 01       	.word 0x0601
 60106fa:	05 28       	.word 0x0528
 60106fc:	06 01       	.word 0x0601
 60106fe:	04 72       	.word 0x0472
 6010700:	06 01       	.word 0x0601
 6010702:	04 a0       	.word 0x04a0
 6010704:	22 20       	mov.b	r2,@r2
 6010706:	00 01       	.word 0x0001
 6010708:	22 10       	mov.b	r1,@r2
 601070a:	00 01       	.word 0x0001
 601070c:	06 01       	.word 0x0601
 601070e:	03 a4       	mov.b	r10,@(r0,r3)
 6010710:	06 01       	.word 0x0601
 6010712:	04 4c       	mov.b	@(r0,r4),r4

06010714 <_Devcart_PrintStr>:

void Devcart_PrintStr(char *string) {
 6010714:	2f e6       	mov.l	r14,@-r15
 6010716:	4f 22       	sts.l	pr,@-r15
 6010718:	7f f8       	add	#-8,r15
 601071a:	6e f3       	mov	r15,r14
 601071c:	61 e3       	mov	r14,r1
 601071e:	71 c8       	add	#-56,r1
 6010720:	11 4e       	mov.l	r4,@(56,r1)
    Devcart_PutByte(FUNC_PRINT);
 6010722:	e4 04       	mov	#4,r4
 6010724:	d1 17       	mov.l	6010784 <_Devcart_PrintStr+0x70>,r1	! 6010528 <_Devcart_PutByte>
 6010726:	41 0b       	jsr	@r1
 6010728:	00 09       	nop	
    for (int i = 0;; i++) {
 601072a:	61 e3       	mov	r14,r1
 601072c:	71 c8       	add	#-56,r1
 601072e:	e2 00       	mov	#0,r2
 6010730:	11 2f       	mov.l	r2,@(60,r1)
        Devcart_PutByte(string[i]);
 6010732:	61 e3       	mov	r14,r1
 6010734:	71 c8       	add	#-56,r1
 6010736:	51 1f       	mov.l	@(60,r1),r1
 6010738:	62 e3       	mov	r14,r2
 601073a:	72 c8       	add	#-56,r2
 601073c:	52 2e       	mov.l	@(56,r2),r2
 601073e:	31 2c       	add	r2,r1
 6010740:	61 10       	mov.b	@r1,r1
 6010742:	61 1c       	extu.b	r1,r1
 6010744:	64 13       	mov	r1,r4
 6010746:	d1 0f       	mov.l	6010784 <_Devcart_PrintStr+0x70>,r1	! 6010528 <_Devcart_PutByte>
 6010748:	41 0b       	jsr	@r1
 601074a:	00 09       	nop	
        if (string[i] == '\0') {
 601074c:	61 e3       	mov	r14,r1
 601074e:	71 c8       	add	#-56,r1
 6010750:	51 1f       	mov.l	@(60,r1),r1
 6010752:	62 e3       	mov	r14,r2
 6010754:	72 c8       	add	#-56,r2
 6010756:	52 2e       	mov.l	@(56,r2),r2
 6010758:	31 2c       	add	r2,r1
 601075a:	61 10       	mov.b	@r1,r1
 601075c:	21 18       	tst	r1,r1
 601075e:	89 08       	bt	6010772 <_Devcart_PrintStr+0x5e>
    for (int i = 0;; i++) {
 6010760:	61 e3       	mov	r14,r1
 6010762:	71 c8       	add	#-56,r1
 6010764:	62 e3       	mov	r14,r2
 6010766:	72 c8       	add	#-56,r2
 6010768:	52 2f       	mov.l	@(60,r2),r2
 601076a:	72 01       	add	#1,r2
 601076c:	11 2f       	mov.l	r2,@(60,r1)
        Devcart_PutByte(string[i]);
 601076e:	af e0       	bra	6010732 <_Devcart_PrintStr+0x1e>
 6010770:	00 09       	nop	
            break;
 6010772:	00 09       	nop	
        }
    }
}
 6010774:	00 09       	nop	
 6010776:	7e 08       	add	#8,r14
 6010778:	6f e3       	mov	r14,r15
 601077a:	4f 26       	lds.l	@r15+,pr
 601077c:	6e f6       	mov.l	@r15+,r14
 601077e:	00 0b       	rts	
 6010780:	00 09       	nop	
 6010782:	00 09       	nop	
 6010784:	06 01       	.word 0x0601
 6010786:	05 28       	.word 0x0528

06010788 <_Devcart_Reset>:

void Devcart_Reset() {
 6010788:	2f e6       	mov.l	r14,@-r15
 601078a:	4f 22       	sts.l	pr,@-r15
 601078c:	6e f3       	mov	r15,r14
    // quit server program
    Devcart_PutByte(FUNC_QUIT);
 601078e:	e4 05       	mov	#5,r4
 6010790:	d1 10       	mov.l	60107d4 <_Devcart_Reset+0x4c>,r1	! 6010528 <_Devcart_PutByte>
 6010792:	41 0b       	jsr	@r1
 6010794:	00 09       	nop	
    // reset saturn
    PER_SMPC_SYS_RES();
 6010796:	00 09       	nop	
 6010798:	d1 0f       	mov.l	60107d8 <_Devcart_Reset+0x50>,r1	! 20100063
 601079a:	61 10       	mov.b	@r1,r1
 601079c:	61 1c       	extu.b	r1,r1
 601079e:	e2 01       	mov	#1,r2
 60107a0:	22 19       	and	r1,r2
 60107a2:	e1 01       	mov	#1,r1
 60107a4:	32 10       	cmp/eq	r1,r2
 60107a6:	89 f7       	bt	6010798 <_Devcart_Reset+0x10>
 60107a8:	d1 0b       	mov.l	60107d8 <_Devcart_Reset+0x50>,r1	! 20100063
 60107aa:	e2 01       	mov	#1,r2
 60107ac:	21 20       	mov.b	r2,@r1
 60107ae:	d1 0b       	mov.l	60107dc <_Devcart_Reset+0x54>,r1	! 2010001f
 60107b0:	e2 0d       	mov	#13,r2
 60107b2:	21 20       	mov.b	r2,@r1
 60107b4:	00 09       	nop	
 60107b6:	d1 08       	mov.l	60107d8 <_Devcart_Reset+0x50>,r1	! 20100063
 60107b8:	61 10       	mov.b	@r1,r1
 60107ba:	61 1c       	extu.b	r1,r1
 60107bc:	e2 01       	mov	#1,r2
 60107be:	21 29       	and	r2,r1
 60107c0:	21 18       	tst	r1,r1
 60107c2:	8b f8       	bf	60107b6 <_Devcart_Reset+0x2e>
}
 60107c4:	00 09       	nop	
 60107c6:	00 09       	nop	
 60107c8:	6f e3       	mov	r14,r15
 60107ca:	4f 26       	lds.l	@r15+,pr
 60107cc:	6e f6       	mov.l	@r15+,r14
 60107ce:	00 0b       	rts	
 60107d0:	00 09       	nop	
 60107d2:	00 09       	nop	
 60107d4:	06 01       	.word 0x0601
 60107d6:	05 28       	.word 0x0528
 60107d8:	20 10       	mov.b	r1,@r0
 60107da:	00 63       	.word 0x0063
 60107dc:	20 10       	mov.b	r1,@r0
 60107de:	00 1f       	mac.l	@r1+,@r0+

060107e0 <_Print_Load>:
#define COLS 88
#define FONT_X 8
#define FONT_Y 8
Uint8 text[ROWS][COLS];

void Print_Load() {
 60107e0:	2f e6       	mov.l	r14,@-r15
 60107e2:	4f 22       	sts.l	pr,@-r15
 60107e4:	6e f3       	mov	r15,r14
	Sprite_Load("FONT.SPR", NULL);
 60107e6:	d1 06       	mov.l	6010800 <_Print_Load+0x20>,r1	! 601ee68
 60107e8:	e5 00       	mov	#0,r5
 60107ea:	64 13       	mov	r1,r4
 60107ec:	d1 05       	mov.l	6010804 <_Print_Load+0x24>,r1	! 6011d44 <_Sprite_Load>
 60107ee:	41 0b       	jsr	@r1
 60107f0:	00 09       	nop	
}
 60107f2:	00 09       	nop	
 60107f4:	6f e3       	mov	r14,r15
 60107f6:	4f 26       	lds.l	@r15+,pr
 60107f8:	6e f6       	mov.l	@r15+,r14
 60107fa:	00 0b       	rts	
 60107fc:	00 09       	nop	
 60107fe:	00 09       	nop	
 6010800:	06 01       	.word 0x0601
 6010802:	ee 68       	mov	#104,r14
 6010804:	06 01       	.word 0x0601
 6010806:	1d 44       	mov.l	r4,@(16,r13)

06010808 <_Print_Init>:

void Print_Init() {
 6010808:	2f e6       	mov.l	r14,@-r15
 601080a:	7f f8       	add	#-8,r15
 601080c:	6e f3       	mov	r15,r14
	int i, j;
	for (i = 0; i < ROWS; i++) {
 601080e:	61 e3       	mov	r14,r1
 6010810:	71 c8       	add	#-56,r1
 6010812:	e2 00       	mov	#0,r2
 6010814:	11 2f       	mov.l	r2,@(60,r1)
 6010816:	a0 28       	bra	601086a <_Print_Init+0x62>
 6010818:	00 09       	nop	
		for (j = 0; j < COLS; j++) {
 601081a:	61 e3       	mov	r14,r1
 601081c:	71 c8       	add	#-56,r1
 601081e:	e2 00       	mov	#0,r2
 6010820:	11 2e       	mov.l	r2,@(56,r1)
 6010822:	a0 15       	bra	6010850 <_Print_Init+0x48>
 6010824:	00 09       	nop	
			text[i][j] = 255;
 6010826:	d1 17       	mov.l	6010884 <_Print_Init+0x7c>,r1	! 60207a8 <_text>
 6010828:	62 e3       	mov	r14,r2
 601082a:	72 c8       	add	#-56,r2
 601082c:	53 2f       	mov.l	@(60,r2),r3
 601082e:	e2 58       	mov	#88,r2
 6010830:	03 27       	mul.l	r2,r3
 6010832:	02 1a       	sts	macl,r2
 6010834:	32 1c       	add	r1,r2
 6010836:	61 e3       	mov	r14,r1
 6010838:	71 c8       	add	#-56,r1
 601083a:	51 1e       	mov.l	@(56,r1),r1
 601083c:	31 2c       	add	r2,r1
 601083e:	e2 ff       	mov	#-1,r2
 6010840:	21 20       	mov.b	r2,@r1
		for (j = 0; j < COLS; j++) {
 6010842:	61 e3       	mov	r14,r1
 6010844:	71 c8       	add	#-56,r1
 6010846:	62 e3       	mov	r14,r2
 6010848:	72 c8       	add	#-56,r2
 601084a:	52 2e       	mov.l	@(56,r2),r2
 601084c:	72 01       	add	#1,r2
 601084e:	11 2e       	mov.l	r2,@(56,r1)
 6010850:	61 e3       	mov	r14,r1
 6010852:	71 c8       	add	#-56,r1
 6010854:	52 1e       	mov.l	@(56,r1),r2
 6010856:	e1 57       	mov	#87,r1
 6010858:	32 17       	cmp/gt	r1,r2
 601085a:	8b e4       	bf	6010826 <_Print_Init+0x1e>
	for (i = 0; i < ROWS; i++) {
 601085c:	61 e3       	mov	r14,r1
 601085e:	71 c8       	add	#-56,r1
 6010860:	62 e3       	mov	r14,r2
 6010862:	72 c8       	add	#-56,r2
 6010864:	52 2f       	mov.l	@(60,r2),r2
 6010866:	72 01       	add	#1,r2
 6010868:	11 2f       	mov.l	r2,@(60,r1)
 601086a:	61 e3       	mov	r14,r1
 601086c:	71 c8       	add	#-56,r1
 601086e:	52 1f       	mov.l	@(60,r1),r2
 6010870:	e1 3b       	mov	#59,r1
 6010872:	32 17       	cmp/gt	r1,r2
 6010874:	8b d1       	bf	601081a <_Print_Init+0x12>
		}
	}
}
 6010876:	00 09       	nop	
 6010878:	00 09       	nop	
 601087a:	7e 08       	add	#8,r14
 601087c:	6f e3       	mov	r14,r15
 601087e:	6e f6       	mov.l	@r15+,r14
 6010880:	00 0b       	rts	
 6010882:	00 09       	nop	
 6010884:	06 02       	stc	sr,r6
 6010886:	07 a8       	.word 0x07a8

06010888 <_Print_Num>:

void Print_Num(Uint32 num, int row, int col) {
 6010888:	2f e6       	mov.l	r14,@-r15
 601088a:	7f ec       	add	#-20,r15
 601088c:	6e f3       	mov	r15,r14
 601088e:	61 e3       	mov	r14,r1
 6010890:	71 d4       	add	#-44,r1
 6010892:	11 4d       	mov.l	r4,@(52,r1)
 6010894:	61 e3       	mov	r14,r1
 6010896:	71 d4       	add	#-44,r1
 6010898:	11 5c       	mov.l	r5,@(48,r1)
 601089a:	61 e3       	mov	r14,r1
 601089c:	71 d4       	add	#-44,r1
 601089e:	11 6b       	mov.l	r6,@(44,r1)
	int rightCol = col + 9; //rightmost column
 60108a0:	61 e3       	mov	r14,r1
 60108a2:	71 d4       	add	#-44,r1
 60108a4:	62 e3       	mov	r14,r2
 60108a6:	72 d4       	add	#-44,r2
 60108a8:	52 2b       	mov.l	@(44,r2),r2
 60108aa:	72 09       	add	#9,r2
 60108ac:	11 2f       	mov.l	r2,@(60,r1)
	int i;
	for (i = 0; i <= 9; i++) {
 60108ae:	61 e3       	mov	r14,r1
 60108b0:	71 d4       	add	#-44,r1
 60108b2:	e2 00       	mov	#0,r2
 60108b4:	11 2e       	mov.l	r2,@(56,r1)
 60108b6:	a0 38       	bra	601092a <_Print_Num+0xa2>
 60108b8:	00 09       	nop	
		text[row][rightCol--] = (num % 10) + 16;
 60108ba:	61 e3       	mov	r14,r1
 60108bc:	71 d4       	add	#-44,r1
 60108be:	53 1d       	mov.l	@(52,r1),r3
 60108c0:	d1 20       	mov.l	6010944 <_Print_Num+0xbc>,r1	! cccccccd
 60108c2:	33 15       	dmulu.l	r1,r3
 60108c4:	01 0a       	sts	mach,r1
 60108c6:	00 09       	nop	
 60108c8:	62 13       	mov	r1,r2
 60108ca:	42 09       	shlr2	r2
 60108cc:	42 01       	shlr	r2
 60108ce:	61 23       	mov	r2,r1
 60108d0:	41 08       	shll2	r1
 60108d2:	31 2c       	add	r2,r1
 60108d4:	31 1c       	add	r1,r1
 60108d6:	62 33       	mov	r3,r2
 60108d8:	32 18       	sub	r1,r2
 60108da:	62 2c       	extu.b	r2,r2
 60108dc:	61 e3       	mov	r14,r1
 60108de:	71 d4       	add	#-44,r1
 60108e0:	51 1f       	mov.l	@(60,r1),r1
 60108e2:	63 e3       	mov	r14,r3
 60108e4:	73 d4       	add	#-44,r3
 60108e6:	67 13       	mov	r1,r7
 60108e8:	77 ff       	add	#-1,r7
 60108ea:	13 7f       	mov.l	r7,@(60,r3)
 60108ec:	72 10       	add	#16,r2
 60108ee:	62 2c       	extu.b	r2,r2
 60108f0:	d3 15       	mov.l	6010948 <_Print_Num+0xc0>,r3	! 60207a8 <_text>
 60108f2:	67 e3       	mov	r14,r7
 60108f4:	77 d4       	add	#-44,r7
 60108f6:	56 7c       	mov.l	@(48,r7),r6
 60108f8:	e7 58       	mov	#88,r7
 60108fa:	06 77       	mul.l	r7,r6
 60108fc:	07 1a       	sts	macl,r7
 60108fe:	33 7c       	add	r7,r3
 6010900:	31 3c       	add	r3,r1
 6010902:	21 20       	mov.b	r2,@r1
		num /= 10;
 6010904:	61 e3       	mov	r14,r1
 6010906:	71 d4       	add	#-44,r1
 6010908:	62 e3       	mov	r14,r2
 601090a:	72 d4       	add	#-44,r2
 601090c:	53 2d       	mov.l	@(52,r2),r3
 601090e:	d2 0d       	mov.l	6010944 <_Print_Num+0xbc>,r2	! cccccccd
 6010910:	33 25       	dmulu.l	r2,r3
 6010912:	02 0a       	sts	mach,r2
 6010914:	00 09       	nop	
 6010916:	42 09       	shlr2	r2
 6010918:	42 01       	shlr	r2
 601091a:	11 2d       	mov.l	r2,@(52,r1)
	for (i = 0; i <= 9; i++) {
 601091c:	61 e3       	mov	r14,r1
 601091e:	71 d4       	add	#-44,r1
 6010920:	62 e3       	mov	r14,r2
 6010922:	72 d4       	add	#-44,r2
 6010924:	52 2e       	mov.l	@(56,r2),r2
 6010926:	72 01       	add	#1,r2
 6010928:	11 2e       	mov.l	r2,@(56,r1)
 601092a:	61 e3       	mov	r14,r1
 601092c:	71 d4       	add	#-44,r1
 601092e:	52 1e       	mov.l	@(56,r1),r2
 6010930:	e1 09       	mov	#9,r1
 6010932:	32 17       	cmp/gt	r1,r2
 6010934:	8b c1       	bf	60108ba <_Print_Num+0x32>
	}
}
 6010936:	00 09       	nop	
 6010938:	00 09       	nop	
 601093a:	7e 14       	add	#20,r14
 601093c:	6f e3       	mov	r14,r15
 601093e:	6e f6       	mov.l	@r15+,r14
 6010940:	00 0b       	rts	
 6010942:	00 09       	nop	
 6010944:	cc cc       	tst.b	#204,@(r0,gbr)
 6010946:	cc cd       	tst.b	#205,@(r0,gbr)
 6010948:	06 02       	stc	sr,r6
 601094a:	07 a8       	.word 0x07a8

0601094c <_Print_String>:

void Print_String(char *ch, int row, int col) {
 601094c:	2f e6       	mov.l	r14,@-r15
 601094e:	7f ec       	add	#-20,r15
 6010950:	6e f3       	mov	r15,r14
 6010952:	61 e3       	mov	r14,r1
 6010954:	71 d4       	add	#-44,r1
 6010956:	11 4d       	mov.l	r4,@(52,r1)
 6010958:	61 e3       	mov	r14,r1
 601095a:	71 d4       	add	#-44,r1
 601095c:	11 5c       	mov.l	r5,@(48,r1)
 601095e:	61 e3       	mov	r14,r1
 6010960:	71 d4       	add	#-44,r1
 6010962:	11 6b       	mov.l	r6,@(44,r1)
	int index = 0;
 6010964:	61 e3       	mov	r14,r1
 6010966:	71 d4       	add	#-44,r1
 6010968:	e2 00       	mov	#0,r2
 601096a:	11 2f       	mov.l	r2,@(60,r1)
	int colBak = col;
 601096c:	61 e3       	mov	r14,r1
 601096e:	71 d4       	add	#-44,r1
 6010970:	62 e3       	mov	r14,r2
 6010972:	72 d4       	add	#-44,r2
 6010974:	52 2b       	mov.l	@(44,r2),r2
 6010976:	11 2e       	mov.l	r2,@(56,r1)
	while (ch[index]) {
 6010978:	a0 3e       	bra	60109f8 <_Print_String+0xac>
 601097a:	00 09       	nop	
		if (ch[index] == '\n') {
 601097c:	61 e3       	mov	r14,r1
 601097e:	71 d4       	add	#-44,r1
 6010980:	51 1f       	mov.l	@(60,r1),r1
 6010982:	62 e3       	mov	r14,r2
 6010984:	72 d4       	add	#-44,r2
 6010986:	52 2d       	mov.l	@(52,r2),r2
 6010988:	31 2c       	add	r2,r1
 601098a:	62 10       	mov.b	@r1,r2
 601098c:	e1 0a       	mov	#10,r1
 601098e:	32 10       	cmp/eq	r1,r2
 6010990:	8b 0e       	bf	60109b0 <_Print_String+0x64>
			row++;
 6010992:	61 e3       	mov	r14,r1
 6010994:	71 d4       	add	#-44,r1
 6010996:	62 e3       	mov	r14,r2
 6010998:	72 d4       	add	#-44,r2
 601099a:	52 2c       	mov.l	@(48,r2),r2
 601099c:	72 01       	add	#1,r2
 601099e:	11 2c       	mov.l	r2,@(48,r1)
			col = colBak;
 60109a0:	61 e3       	mov	r14,r1
 60109a2:	71 d4       	add	#-44,r1
 60109a4:	62 e3       	mov	r14,r2
 60109a6:	72 d4       	add	#-44,r2
 60109a8:	52 2e       	mov.l	@(56,r2),r2
 60109aa:	11 2b       	mov.l	r2,@(44,r1)
 60109ac:	a0 1d       	bra	60109ea <_Print_String+0x9e>
 60109ae:	00 09       	nop	
		}
		else {
			text[row][col++] = ch[index] - 32;
 60109b0:	61 e3       	mov	r14,r1
 60109b2:	71 d4       	add	#-44,r1
 60109b4:	51 1f       	mov.l	@(60,r1),r1
 60109b6:	62 e3       	mov	r14,r2
 60109b8:	72 d4       	add	#-44,r2
 60109ba:	52 2d       	mov.l	@(52,r2),r2
 60109bc:	31 2c       	add	r2,r1
 60109be:	61 10       	mov.b	@r1,r1
 60109c0:	62 1c       	extu.b	r1,r2
 60109c2:	61 e3       	mov	r14,r1
 60109c4:	71 d4       	add	#-44,r1
 60109c6:	51 1b       	mov.l	@(44,r1),r1
 60109c8:	63 e3       	mov	r14,r3
 60109ca:	73 d4       	add	#-44,r3
 60109cc:	67 13       	mov	r1,r7
 60109ce:	77 01       	add	#1,r7
 60109d0:	13 7b       	mov.l	r7,@(44,r3)
 60109d2:	72 e0       	add	#-32,r2
 60109d4:	62 2c       	extu.b	r2,r2
 60109d6:	d3 11       	mov.l	6010a1c <_Print_String+0xd0>,r3	! 60207a8 <_text>
 60109d8:	67 e3       	mov	r14,r7
 60109da:	77 d4       	add	#-44,r7
 60109dc:	56 7c       	mov.l	@(48,r7),r6
 60109de:	e7 58       	mov	#88,r7
 60109e0:	06 77       	mul.l	r7,r6
 60109e2:	07 1a       	sts	macl,r7
 60109e4:	33 7c       	add	r7,r3
 60109e6:	31 3c       	add	r3,r1
 60109e8:	21 20       	mov.b	r2,@r1
		}
		index++;
 60109ea:	61 e3       	mov	r14,r1
 60109ec:	71 d4       	add	#-44,r1
 60109ee:	62 e3       	mov	r14,r2
 60109f0:	72 d4       	add	#-44,r2
 60109f2:	52 2f       	mov.l	@(60,r2),r2
 60109f4:	72 01       	add	#1,r2
 60109f6:	11 2f       	mov.l	r2,@(60,r1)
	while (ch[index]) {
 60109f8:	61 e3       	mov	r14,r1
 60109fa:	71 d4       	add	#-44,r1
 60109fc:	51 1f       	mov.l	@(60,r1),r1
 60109fe:	62 e3       	mov	r14,r2
 6010a00:	72 d4       	add	#-44,r2
 6010a02:	52 2d       	mov.l	@(52,r2),r2
 6010a04:	31 2c       	add	r2,r1
 6010a06:	61 10       	mov.b	@r1,r1
 6010a08:	21 18       	tst	r1,r1
 6010a0a:	8b b7       	bf	601097c <_Print_String+0x30>
	}
}
 6010a0c:	00 09       	nop	
 6010a0e:	00 09       	nop	
 6010a10:	7e 14       	add	#20,r14
 6010a12:	6f e3       	mov	r14,r15
 6010a14:	6e f6       	mov.l	@r15+,r14
 6010a16:	00 0b       	rts	
 6010a18:	00 09       	nop	
 6010a1a:	00 09       	nop	
 6010a1c:	06 02       	stc	sr,r6
 6010a1e:	07 a8       	.word 0x07a8

06010a20 <_Print_Display>:

void Print_Display() {
 6010a20:	2f 86       	mov.l	r8,@-r15
 6010a22:	2f 96       	mov.l	r9,@-r15
 6010a24:	2f e6       	mov.l	r14,@-r15
 6010a26:	4f 22       	sts.l	pr,@-r15
 6010a28:	7f bc       	add	#-68,r15
 6010a2a:	6e f3       	mov	r15,r14
	int i, j;
	SPRITE_INFO textSpr;
	for (i = 0; i < ROWS; i++) {
 6010a2c:	61 e3       	mov	r14,r1
 6010a2e:	71 04       	add	#4,r1
 6010a30:	e2 00       	mov	#0,r2
 6010a32:	11 2f       	mov.l	r2,@(60,r1)
 6010a34:	a0 5b       	bra	6010aee <_Print_Display+0xce>
 6010a36:	00 09       	nop	
		for (j = 0; j < COLS; j++) {
 6010a38:	61 e3       	mov	r14,r1
 6010a3a:	71 04       	add	#4,r1
 6010a3c:	e2 00       	mov	#0,r2
 6010a3e:	11 2e       	mov.l	r2,@(56,r1)
 6010a40:	a0 48       	bra	6010ad4 <_Print_Display+0xb4>
 6010a42:	00 09       	nop	
			if (text[i][j] != 255) {
 6010a44:	d1 32       	mov.l	6010b10 <_Print_Display+0xf0>,r1	! 60207a8 <_text>
 6010a46:	62 e3       	mov	r14,r2
 6010a48:	72 04       	add	#4,r2
 6010a4a:	53 2f       	mov.l	@(60,r2),r3
 6010a4c:	e2 58       	mov	#88,r2
 6010a4e:	03 27       	mul.l	r2,r3
 6010a50:	02 1a       	sts	macl,r2
 6010a52:	32 1c       	add	r1,r2
 6010a54:	61 e3       	mov	r14,r1
 6010a56:	71 04       	add	#4,r1
 6010a58:	51 1e       	mov.l	@(56,r1),r1
 6010a5a:	31 2c       	add	r2,r1
 6010a5c:	61 10       	mov.b	@r1,r1
 6010a5e:	62 1c       	extu.b	r1,r2
 6010a60:	91 55       	mov.w	6010b0e <_Print_Display+0xee>,r1	! ff
 6010a62:	32 10       	cmp/eq	r1,r2
 6010a64:	89 2f       	bt	6010ac6 <_Print_Display+0xa6>
				Sprite_Make(text[i][j],
 6010a66:	d1 2a       	mov.l	6010b10 <_Print_Display+0xf0>,r1	! 60207a8 <_text>
 6010a68:	62 e3       	mov	r14,r2
 6010a6a:	72 04       	add	#4,r2
 6010a6c:	53 2f       	mov.l	@(60,r2),r3
 6010a6e:	e2 58       	mov	#88,r2
 6010a70:	03 27       	mul.l	r2,r3
 6010a72:	02 1a       	sts	macl,r2
 6010a74:	32 1c       	add	r1,r2
 6010a76:	61 e3       	mov	r14,r1
 6010a78:	71 04       	add	#4,r1
 6010a7a:	51 1e       	mov.l	@(56,r1),r1
 6010a7c:	31 2c       	add	r2,r1
 6010a7e:	61 10       	mov.b	@r1,r1
 6010a80:	61 1c       	extu.b	r1,r1
 6010a82:	69 13       	mov	r1,r9
					MTH_IntToFixed(j << 3), // * FONT_X
 6010a84:	61 e3       	mov	r14,r1
 6010a86:	71 04       	add	#4,r1
 6010a88:	51 1e       	mov.l	@(56,r1),r1
 6010a8a:	41 08       	shll2	r1
 6010a8c:	31 1c       	add	r1,r1
				Sprite_Make(text[i][j],
 6010a8e:	64 13       	mov	r1,r4
 6010a90:	d1 20       	mov.l	6010b14 <_Print_Display+0xf4>,r1	! 60171b0 <_MTH_IntToFixed>
 6010a92:	41 0b       	jsr	@r1
 6010a94:	00 09       	nop	
 6010a96:	68 03       	mov	r0,r8
					MTH_IntToFixed(i << 3), // * FONT_Y
 6010a98:	61 e3       	mov	r14,r1
 6010a9a:	71 04       	add	#4,r1
 6010a9c:	51 1f       	mov.l	@(60,r1),r1
 6010a9e:	41 08       	shll2	r1
 6010aa0:	31 1c       	add	r1,r1
				Sprite_Make(text[i][j],
 6010aa2:	64 13       	mov	r1,r4
 6010aa4:	d1 1b       	mov.l	6010b14 <_Print_Display+0xf4>,r1	! 60171b0 <_MTH_IntToFixed>
 6010aa6:	41 0b       	jsr	@r1
 6010aa8:	00 09       	nop	
 6010aaa:	61 03       	mov	r0,r1
 6010aac:	62 e3       	mov	r14,r2
 6010aae:	67 23       	mov	r2,r7
 6010ab0:	66 13       	mov	r1,r6
 6010ab2:	65 83       	mov	r8,r5
 6010ab4:	64 93       	mov	r9,r4
 6010ab6:	d1 18       	mov.l	6010b18 <_Print_Display+0xf8>,r1	! 601223c <_Sprite_Make>
 6010ab8:	41 0b       	jsr	@r1
 6010aba:	00 09       	nop	
					&textSpr);
				Sprite_Draw(&textSpr);
 6010abc:	61 e3       	mov	r14,r1
 6010abe:	64 13       	mov	r1,r4
 6010ac0:	d1 16       	mov.l	6010b1c <_Print_Display+0xfc>,r1	! 6011e30 <_Sprite_Draw>
 6010ac2:	41 0b       	jsr	@r1
 6010ac4:	00 09       	nop	
		for (j = 0; j < COLS; j++) {
 6010ac6:	61 e3       	mov	r14,r1
 6010ac8:	71 04       	add	#4,r1
 6010aca:	62 e3       	mov	r14,r2
 6010acc:	72 04       	add	#4,r2
 6010ace:	52 2e       	mov.l	@(56,r2),r2
 6010ad0:	72 01       	add	#1,r2
 6010ad2:	11 2e       	mov.l	r2,@(56,r1)
 6010ad4:	61 e3       	mov	r14,r1
 6010ad6:	71 04       	add	#4,r1
 6010ad8:	52 1e       	mov.l	@(56,r1),r2
 6010ada:	e1 57       	mov	#87,r1
 6010adc:	32 17       	cmp/gt	r1,r2
 6010ade:	8b b1       	bf	6010a44 <_Print_Display+0x24>
	for (i = 0; i < ROWS; i++) {
 6010ae0:	61 e3       	mov	r14,r1
 6010ae2:	71 04       	add	#4,r1
 6010ae4:	62 e3       	mov	r14,r2
 6010ae6:	72 04       	add	#4,r2
 6010ae8:	52 2f       	mov.l	@(60,r2),r2
 6010aea:	72 01       	add	#1,r2
 6010aec:	11 2f       	mov.l	r2,@(60,r1)
 6010aee:	61 e3       	mov	r14,r1
 6010af0:	71 04       	add	#4,r1
 6010af2:	52 1f       	mov.l	@(60,r1),r2
 6010af4:	e1 3b       	mov	#59,r1
 6010af6:	32 17       	cmp/gt	r1,r2
 6010af8:	8b 9e       	bf	6010a38 <_Print_Display+0x18>
			}
		}
	}
}
 6010afa:	00 09       	nop	
 6010afc:	00 09       	nop	
 6010afe:	7e 44       	add	#68,r14
 6010b00:	6f e3       	mov	r14,r15
 6010b02:	4f 26       	lds.l	@r15+,pr
 6010b04:	6e f6       	mov.l	@r15+,r14
 6010b06:	69 f6       	mov.l	@r15+,r9
 6010b08:	68 f6       	mov.l	@r15+,r8
 6010b0a:	00 0b       	rts	
 6010b0c:	00 09       	nop	
 6010b0e:	00 ff       	mac.l	@r15+,@r0+
 6010b10:	06 02       	stc	sr,r6
 6010b12:	07 a8       	.word 0x07a8
 6010b14:	06 01       	.word 0x0601
 6010b16:	71 b0       	add	#-80,r1
 6010b18:	06 01       	.word 0x0601
 6010b1a:	22 3c       	cmp/str	r3,r2
 6010b1c:	06 01       	.word 0x0601
 6010b1e:	1e 30       	mov.l	r3,@(0,r14)

06010b20 <_scroll_init>:
	0x4444,0xffff
};

SclConfig scfg[4];

void scroll_init(void) {
 6010b20:	2f e6       	mov.l	r14,@-r15
 6010b22:	4f 22       	sts.l	pr,@-r15
 6010b24:	7f e4       	add	#-28,r15
 6010b26:	6e f3       	mov	r15,r14
	int i;
	Uint16 BackCol;
	SclVramConfig vram_cfg;

	//wipe out vram
    for (int i = 0; i < 0x80000; i++) {
 6010b28:	61 e3       	mov	r14,r1
 6010b2a:	71 dc       	add	#-36,r1
 6010b2c:	e2 00       	mov	#0,r2
 6010b2e:	11 2e       	mov.l	r2,@(56,r1)
 6010b30:	a0 0e       	bra	6010b50 <_scroll_init+0x30>
 6010b32:	00 09       	nop	
        ((volatile char *)SCL_VDP2_VRAM)[i] = 0;
 6010b34:	61 e3       	mov	r14,r1
 6010b36:	71 dc       	add	#-36,r1
 6010b38:	51 1e       	mov.l	@(56,r1),r1
 6010b3a:	d0 5e       	mov.l	6010cb4 <_scroll_init+0x194>,r0	! 25e00000
 6010b3c:	31 0c       	add	r0,r1
 6010b3e:	e2 00       	mov	#0,r2
 6010b40:	21 20       	mov.b	r2,@r1
    for (int i = 0; i < 0x80000; i++) {
 6010b42:	61 e3       	mov	r14,r1
 6010b44:	71 dc       	add	#-36,r1
 6010b46:	62 e3       	mov	r14,r2
 6010b48:	72 dc       	add	#-36,r2
 6010b4a:	52 2e       	mov.l	@(56,r2),r2
 6010b4c:	72 01       	add	#1,r2
 6010b4e:	11 2e       	mov.l	r2,@(56,r1)
 6010b50:	61 e3       	mov	r14,r1
 6010b52:	71 dc       	add	#-36,r1
 6010b54:	52 1e       	mov.l	@(56,r1),r2
 6010b56:	d1 58       	mov.l	6010cb8 <_scroll_init+0x198>,r1	! 7ffff
 6010b58:	32 17       	cmp/gt	r1,r2
 6010b5a:	8b eb       	bf	6010b34 <_scroll_init+0x14>
    }

	SCL_AllocColRam(SCL_NBG0, 256, OFF);
 6010b5c:	91 a6       	mov.w	6010cac <_scroll_init+0x18c>,r1	! 100
 6010b5e:	e6 00       	mov	#0,r6
 6010b60:	65 13       	mov	r1,r5
 6010b62:	e4 04       	mov	#4,r4
 6010b64:	d1 55       	mov.l	6010cbc <_scroll_init+0x19c>,r1	! 601c650 <_SCL_AllocColRam>
 6010b66:	41 0b       	jsr	@r1
 6010b68:	00 09       	nop	
	SCL_AllocColRam(SCL_NBG1 | SCL_NBG2 | SCL_NBG3, 64, OFF);
 6010b6a:	e6 00       	mov	#0,r6
 6010b6c:	e5 40       	mov	#64,r5
 6010b6e:	e4 38       	mov	#56,r4
 6010b70:	d1 52       	mov.l	6010cbc <_scroll_init+0x19c>,r1	! 601c650 <_SCL_AllocColRam>
 6010b72:	41 0b       	jsr	@r1
 6010b74:	00 09       	nop	

	BackCol = 0x0000; //set the background color to black
 6010b76:	61 e3       	mov	r14,r1
 6010b78:	71 fc       	add	#-4,r1
 6010b7a:	e2 00       	mov	#0,r2
 6010b7c:	60 23       	mov	r2,r0
 6010b7e:	81 1b       	mov.w	r0,@(22,r1)
	SCL_SetBack(SCL_VDP2_VRAM+0x80000-2,1,&BackCol);
 6010b80:	62 e3       	mov	r14,r2
 6010b82:	72 12       	add	#18,r2
 6010b84:	d1 4e       	mov.l	6010cc0 <_scroll_init+0x1a0>,r1	! 25e7fffe
 6010b86:	66 23       	mov	r2,r6
 6010b88:	e5 01       	mov	#1,r5
 6010b8a:	64 13       	mov	r1,r4
 6010b8c:	d1 4d       	mov.l	6010cc4 <_scroll_init+0x1a4>,r1	! 601c26c <_SCL_SetBack>
 6010b8e:	41 0b       	jsr	@r1
 6010b90:	00 09       	nop	

	SCL_InitConfigTb(&scfg[0]);
 6010b92:	d1 4d       	mov.l	6010cc8 <_scroll_init+0x1a8>,r1	! 6021c48 <_scfg>
 6010b94:	64 13       	mov	r1,r4
 6010b96:	d1 4d       	mov.l	6010ccc <_scroll_init+0x1ac>,r1	! 6019ec0 <_SCL_InitConfigTb>
 6010b98:	41 0b       	jsr	@r1
 6010b9a:	00 09       	nop	
		scfg[0].dispenbl      = ON;
 6010b9c:	d1 4a       	mov.l	6010cc8 <_scroll_init+0x1a8>,r1	! 6021c48 <_scfg>
 6010b9e:	e2 01       	mov	#1,r2
 6010ba0:	21 20       	mov.b	r2,@r1
		scfg[0].charsize      = SCL_CHAR_SIZE_2X2;
 6010ba2:	d1 49       	mov.l	6010cc8 <_scroll_init+0x1a8>,r1	! 6021c48 <_scfg>
 6010ba4:	e2 01       	mov	#1,r2
 6010ba6:	60 23       	mov	r2,r0
 6010ba8:	80 11       	mov.b	r0,@(1,r1)
		scfg[0].pnamesize     = SCL_PN1WORD;
 6010baa:	d1 47       	mov.l	6010cc8 <_scroll_init+0x1a8>,r1	! 6021c48 <_scfg>
 6010bac:	e2 01       	mov	#1,r2
 6010bae:	60 23       	mov	r2,r0
 6010bb0:	80 12       	mov.b	r0,@(2,r1)
		scfg[0].flip          = SCL_PN_10BIT;
 6010bb2:	d1 45       	mov.l	6010cc8 <_scroll_init+0x1a8>,r1	! 6021c48 <_scfg>
 6010bb4:	e2 00       	mov	#0,r2
 6010bb6:	60 23       	mov	r2,r0
 6010bb8:	80 18       	mov.b	r0,@(8,r1)
		scfg[0].platesize     = SCL_PL_SIZE_2X1; //they meant "plane size"
 6010bba:	d1 43       	mov.l	6010cc8 <_scroll_init+0x1a8>,r1	! 6021c48 <_scfg>
 6010bbc:	e2 01       	mov	#1,r2
 6010bbe:	60 23       	mov	r2,r0
 6010bc0:	80 13       	mov.b	r0,@(3,r1)
		scfg[0].coltype       = SCL_COL_TYPE_256;
 6010bc2:	d1 41       	mov.l	6010cc8 <_scroll_init+0x1a8>,r1	! 6021c48 <_scfg>
 6010bc4:	e2 01       	mov	#1,r2
 6010bc6:	60 23       	mov	r2,r0
 6010bc8:	80 15       	mov.b	r0,@(5,r1)
		scfg[0].datatype      = SCL_CELL;
 6010bca:	d1 3f       	mov.l	6010cc8 <_scroll_init+0x1a8>,r1	! 6021c48 <_scfg>
 6010bcc:	e2 00       	mov	#0,r2
 6010bce:	60 23       	mov	r2,r0
 6010bd0:	80 16       	mov.b	r0,@(6,r1)
		scfg[0].patnamecontrl = 0x0004; //vram A1 offset
 6010bd2:	d1 3d       	mov.l	6010cc8 <_scroll_init+0x1a8>,r1	! 6021c48 <_scfg>
 6010bd4:	e2 04       	mov	#4,r2
 6010bd6:	60 23       	mov	r2,r0
 6010bd8:	81 15       	mov.w	r0,@(10,r1)
		scfg[0].plate_addr[0] = vram[0];
 6010bda:	d1 3d       	mov.l	6010cd0 <_scroll_init+0x1b0>,r1	! 601f060 <_vram>
 6010bdc:	62 12       	mov.l	@r1,r2
 6010bde:	d1 3a       	mov.l	6010cc8 <_scroll_init+0x1a8>,r1	! 6021c48 <_scfg>
 6010be0:	11 23       	mov.l	r2,@(12,r1)
		scfg[0].plate_addr[1] = vram[0] + 0x800;
 6010be2:	d1 3b       	mov.l	6010cd0 <_scroll_init+0x1b0>,r1	! 601f060 <_vram>
 6010be4:	61 12       	mov.l	@r1,r1
 6010be6:	92 62       	mov.w	6010cae <_scroll_init+0x18e>,r2	! 800
 6010be8:	32 1c       	add	r1,r2
 6010bea:	d1 37       	mov.l	6010cc8 <_scroll_init+0x1a8>,r1	! 6021c48 <_scfg>
 6010bec:	11 24       	mov.l	r2,@(16,r1)
	SCL_SetConfig(SCL_NBG0, &scfg[0]);
 6010bee:	d1 36       	mov.l	6010cc8 <_scroll_init+0x1a8>,r1	! 6021c48 <_scfg>
 6010bf0:	65 13       	mov	r1,r5
 6010bf2:	e4 04       	mov	#4,r4
 6010bf4:	d1 37       	mov.l	6010cd4 <_scroll_init+0x1b4>,r1	! 6019ed8 <_SCL_SetConfig>
 6010bf6:	41 0b       	jsr	@r1
 6010bf8:	00 09       	nop	

	memcpy((void *)&scfg[1], (void *)&scfg[0], sizeof(SclConfig));
 6010bfa:	d1 33       	mov.l	6010cc8 <_scroll_init+0x1a8>,r1	! 6021c48 <_scfg>
 6010bfc:	63 13       	mov	r1,r3
 6010bfe:	73 4c       	add	#76,r3
 6010c00:	d2 31       	mov.l	6010cc8 <_scroll_init+0x1a8>,r2	! 6021c48 <_scfg>
 6010c02:	d1 35       	mov.l	6010cd8 <_scroll_init+0x1b8>,r1	! 601e018 <___movmem>
 6010c04:	64 33       	mov	r3,r4
 6010c06:	65 23       	mov	r2,r5
 6010c08:	e6 0d       	mov	#13,r6
 6010c0a:	41 0b       	jsr	@r1
 6010c0c:	00 09       	nop	
	scfg[1].dispenbl = ON;
 6010c0e:	d1 2e       	mov.l	6010cc8 <_scroll_init+0x1a8>,r1	! 6021c48 <_scfg>
 6010c10:	71 40       	add	#64,r1
 6010c12:	e2 01       	mov	#1,r2
 6010c14:	60 23       	mov	r2,r0
 6010c16:	80 1c       	mov.b	r0,@(12,r1)
	scfg[1].platesize = SCL_PL_SIZE_1X1;
 6010c18:	d1 2b       	mov.l	6010cc8 <_scroll_init+0x1a8>,r1	! 6021c48 <_scfg>
 6010c1a:	71 40       	add	#64,r1
 6010c1c:	e2 00       	mov	#0,r2
 6010c1e:	60 23       	mov	r2,r0
 6010c20:	80 1f       	mov.b	r0,@(15,r1)
	scfg[1].coltype = SCL_COL_TYPE_16;
 6010c22:	d1 29       	mov.l	6010cc8 <_scroll_init+0x1a8>,r1	! 6021c48 <_scfg>
 6010c24:	71 50       	add	#80,r1
 6010c26:	e2 00       	mov	#0,r2
 6010c28:	60 23       	mov	r2,r0
 6010c2a:	80 11       	mov.b	r0,@(1,r1)
	scfg[1].patnamecontrl = 0x000c;
 6010c2c:	d1 26       	mov.l	6010cc8 <_scroll_init+0x1a8>,r1	! 6021c48 <_scfg>
 6010c2e:	71 40       	add	#64,r1
 6010c30:	e2 0c       	mov	#12,r2
 6010c32:	60 23       	mov	r2,r0
 6010c34:	81 1b       	mov.w	r0,@(22,r1)
	for(i=0;i<4;i++)   scfg[1].plate_addr[i] = vram[1];
 6010c36:	61 e3       	mov	r14,r1
 6010c38:	71 dc       	add	#-36,r1
 6010c3a:	e2 00       	mov	#0,r2
 6010c3c:	11 2f       	mov.l	r2,@(60,r1)
 6010c3e:	a0 11       	bra	6010c64 <_scroll_init+0x144>
 6010c40:	00 09       	nop	
 6010c42:	d1 23       	mov.l	6010cd0 <_scroll_init+0x1b0>,r1	! 601f060 <_vram>
 6010c44:	52 11       	mov.l	@(4,r1),r2
 6010c46:	d3 20       	mov.l	6010cc8 <_scroll_init+0x1a8>,r3	! 6021c48 <_scfg>
 6010c48:	61 e3       	mov	r14,r1
 6010c4a:	71 dc       	add	#-36,r1
 6010c4c:	51 1f       	mov.l	@(60,r1),r1
 6010c4e:	71 16       	add	#22,r1
 6010c50:	41 08       	shll2	r1
 6010c52:	31 3c       	add	r3,r1
 6010c54:	21 22       	mov.l	r2,@r1
 6010c56:	61 e3       	mov	r14,r1
 6010c58:	71 dc       	add	#-36,r1
 6010c5a:	62 e3       	mov	r14,r2
 6010c5c:	72 dc       	add	#-36,r2
 6010c5e:	52 2f       	mov.l	@(60,r2),r2
 6010c60:	72 01       	add	#1,r2
 6010c62:	11 2f       	mov.l	r2,@(60,r1)
 6010c64:	61 e3       	mov	r14,r1
 6010c66:	71 dc       	add	#-36,r1
 6010c68:	52 1f       	mov.l	@(60,r1),r2
 6010c6a:	e1 03       	mov	#3,r1
 6010c6c:	32 17       	cmp/gt	r1,r2
 6010c6e:	8b e8       	bf	6010c42 <_scroll_init+0x122>
	SCL_SetConfig(SCL_NBG1, &scfg[1]);
 6010c70:	d1 1a       	mov.l	6010cdc <_scroll_init+0x1bc>,r1	! 6021c94
 6010c72:	65 13       	mov	r1,r5
 6010c74:	e4 08       	mov	#8,r4
 6010c76:	d1 17       	mov.l	6010cd4 <_scroll_init+0x1b4>,r1	! 6019ed8 <_SCL_SetConfig>
 6010c78:	41 0b       	jsr	@r1
 6010c7a:	00 09       	nop	

	memcpy((void *)&scfg[2], (void *)&scfg[1], sizeof(SclConfig));
 6010c7c:	d1 12       	mov.l	6010cc8 <_scroll_init+0x1a8>,r1	! 6021c48 <_scfg>
 6010c7e:	93 17       	mov.w	6010cb0 <_scroll_init+0x190>,r3	! 98
 6010c80:	33 1c       	add	r1,r3
 6010c82:	d1 11       	mov.l	6010cc8 <_scroll_init+0x1a8>,r1	! 6021c48 <_scfg>
 6010c84:	62 13       	mov	r1,r2
 6010c86:	72 4c       	add	#76,r2
 6010c88:	d1 13       	mov.l	6010cd8 <_scroll_init+0x1b8>,r1	! 601e018 <___movmem>
 6010c8a:	64 33       	mov	r3,r4
 6010c8c:	65 23       	mov	r2,r5
 6010c8e:	e6 0d       	mov	#13,r6
 6010c90:	41 0b       	jsr	@r1
 6010c92:	00 09       	nop	
	scfg[2].dispenbl = ON;
 6010c94:	d1 0c       	mov.l	6010cc8 <_scroll_init+0x1a8>,r1	! 6021c48 <_scfg>
 6010c96:	93 0c       	mov.w	6010cb2 <_scroll_init+0x192>,r3	! 90
 6010c98:	31 3c       	add	r3,r1
 6010c9a:	e2 01       	mov	#1,r2
 6010c9c:	60 23       	mov	r2,r0
 6010c9e:	80 18       	mov.b	r0,@(8,r1)
	for(i=0;i<4;i++)   scfg[2].plate_addr[i] = vram[2];
 6010ca0:	61 e3       	mov	r14,r1
 6010ca2:	71 dc       	add	#-36,r1
 6010ca4:	e2 00       	mov	#0,r2
 6010ca6:	11 2f       	mov.l	r2,@(60,r1)
 6010ca8:	a0 2b       	bra	6010d02 <_scroll_init+0x1e2>
 6010caa:	00 09       	nop	
 6010cac:	01 00       	.word 0x0100
 6010cae:	08 00       	.word 0x0800
 6010cb0:	00 98       	.word 0x0098
 6010cb2:	00 90       	.word 0x0090
 6010cb4:	25 e0       	mov.b	r14,@r5
 6010cb6:	00 00       	.word 0x0000
 6010cb8:	00 07       	mul.l	r0,r0
 6010cba:	ff ff       	.word 0xffff
 6010cbc:	06 01       	.word 0x0601
 6010cbe:	c6 50       	mov.l	@(320,gbr),r0
 6010cc0:	25 e7       	div0s	r14,r5
 6010cc2:	ff fe       	.word 0xfffe
 6010cc4:	06 01       	.word 0x0601
 6010cc6:	c2 6c       	mov.l	r0,@(432,gbr)
 6010cc8:	06 02       	stc	sr,r6
 6010cca:	1c 48       	mov.l	r4,@(32,r12)
 6010ccc:	06 01       	.word 0x0601
 6010cce:	9e c0       	mov.w	6010e52 <_scroll_init+0x332>,r14	! e504
 6010cd0:	06 01       	.word 0x0601
 6010cd2:	f0 60       	.word 0xf060
 6010cd4:	06 01       	.word 0x0601
 6010cd6:	9e d8       	mov.w	6010e8a <_scroll_init+0x36a>,r14	! 9ed8
 6010cd8:	06 01       	.word 0x0601
 6010cda:	e0 18       	mov	#24,r0
 6010cdc:	06 02       	stc	sr,r6
 6010cde:	1c 94       	mov.l	r9,@(16,r12)
 6010ce0:	d1 66       	mov.l	6010e7c <_scroll_init+0x35c>,r1	! 601f060 <_vram>
 6010ce2:	52 12       	mov.l	@(8,r1),r2
 6010ce4:	d3 66       	mov.l	6010e80 <_scroll_init+0x360>,r3	! 6021c48 <_scfg>
 6010ce6:	61 e3       	mov	r14,r1
 6010ce8:	71 dc       	add	#-36,r1
 6010cea:	51 1f       	mov.l	@(60,r1),r1
 6010cec:	71 29       	add	#41,r1
 6010cee:	41 08       	shll2	r1
 6010cf0:	31 3c       	add	r3,r1
 6010cf2:	21 22       	mov.l	r2,@r1
 6010cf4:	61 e3       	mov	r14,r1
 6010cf6:	71 dc       	add	#-36,r1
 6010cf8:	62 e3       	mov	r14,r2
 6010cfa:	72 dc       	add	#-36,r2
 6010cfc:	52 2f       	mov.l	@(60,r2),r2
 6010cfe:	72 01       	add	#1,r2
 6010d00:	11 2f       	mov.l	r2,@(60,r1)
 6010d02:	61 e3       	mov	r14,r1
 6010d04:	71 dc       	add	#-36,r1
 6010d06:	52 1f       	mov.l	@(60,r1),r2
 6010d08:	e1 03       	mov	#3,r1
 6010d0a:	32 17       	cmp/gt	r1,r2
 6010d0c:	8b e8       	bf	6010ce0 <_scroll_init+0x1c0>
	SCL_SetConfig(SCL_NBG2, &scfg[2]);
 6010d0e:	d1 5d       	mov.l	6010e84 <_scroll_init+0x364>,r1	! 6021ce0
 6010d10:	65 13       	mov	r1,r5
 6010d12:	e4 10       	mov	#16,r4
 6010d14:	d1 5c       	mov.l	6010e88 <_scroll_init+0x368>,r1	! 6019ed8 <_SCL_SetConfig>
 6010d16:	41 0b       	jsr	@r1
 6010d18:	00 09       	nop	

	memcpy((void *)&scfg[3], (void *)&scfg[2], sizeof(SclConfig));
 6010d1a:	d1 59       	mov.l	6010e80 <_scroll_init+0x360>,r1	! 6021c48 <_scfg>
 6010d1c:	93 aa       	mov.w	6010e74 <_scroll_init+0x354>,r3	! e4
 6010d1e:	33 1c       	add	r1,r3
 6010d20:	d1 57       	mov.l	6010e80 <_scroll_init+0x360>,r1	! 6021c48 <_scfg>
 6010d22:	92 a8       	mov.w	6010e76 <_scroll_init+0x356>,r2	! 98
 6010d24:	32 1c       	add	r1,r2
 6010d26:	d1 59       	mov.l	6010e8c <_scroll_init+0x36c>,r1	! 601e018 <___movmem>
 6010d28:	64 33       	mov	r3,r4
 6010d2a:	65 23       	mov	r2,r5
 6010d2c:	e6 0d       	mov	#13,r6
 6010d2e:	41 0b       	jsr	@r1
 6010d30:	00 09       	nop	
	scfg[3].dispenbl = ON;
 6010d32:	d1 53       	mov.l	6010e80 <_scroll_init+0x360>,r1	! 6021c48 <_scfg>
 6010d34:	90 a0       	mov.w	6010e78 <_scroll_init+0x358>,r0	! e0
 6010d36:	31 0c       	add	r0,r1
 6010d38:	e2 01       	mov	#1,r2
 6010d3a:	60 23       	mov	r2,r0
 6010d3c:	80 14       	mov.b	r0,@(4,r1)
	for(i=0;i<4;i++)   scfg[3].plate_addr[i] = vram[3];
 6010d3e:	61 e3       	mov	r14,r1
 6010d40:	71 dc       	add	#-36,r1
 6010d42:	e2 00       	mov	#0,r2
 6010d44:	11 2f       	mov.l	r2,@(60,r1)
 6010d46:	a0 11       	bra	6010d6c <_scroll_init+0x24c>
 6010d48:	00 09       	nop	
 6010d4a:	d1 4c       	mov.l	6010e7c <_scroll_init+0x35c>,r1	! 601f060 <_vram>
 6010d4c:	52 13       	mov.l	@(12,r1),r2
 6010d4e:	d3 4c       	mov.l	6010e80 <_scroll_init+0x360>,r3	! 6021c48 <_scfg>
 6010d50:	61 e3       	mov	r14,r1
 6010d52:	71 dc       	add	#-36,r1
 6010d54:	51 1f       	mov.l	@(60,r1),r1
 6010d56:	71 3c       	add	#60,r1
 6010d58:	41 08       	shll2	r1
 6010d5a:	31 3c       	add	r3,r1
 6010d5c:	21 22       	mov.l	r2,@r1
 6010d5e:	61 e3       	mov	r14,r1
 6010d60:	71 dc       	add	#-36,r1
 6010d62:	62 e3       	mov	r14,r2
 6010d64:	72 dc       	add	#-36,r2
 6010d66:	52 2f       	mov.l	@(60,r2),r2
 6010d68:	72 01       	add	#1,r2
 6010d6a:	11 2f       	mov.l	r2,@(60,r1)
 6010d6c:	61 e3       	mov	r14,r1
 6010d6e:	71 dc       	add	#-36,r1
 6010d70:	52 1f       	mov.l	@(60,r1),r2
 6010d72:	e1 03       	mov	#3,r1
 6010d74:	32 17       	cmp/gt	r1,r2
 6010d76:	8b e8       	bf	6010d4a <_scroll_init+0x22a>
	SCL_SetConfig(SCL_NBG3, &scfg[3]);
 6010d78:	d1 45       	mov.l	6010e90 <_scroll_init+0x370>,r1	! 6021d2c
 6010d7a:	65 13       	mov	r1,r5
 6010d7c:	e4 20       	mov	#32,r4
 6010d7e:	d1 42       	mov.l	6010e88 <_scroll_init+0x368>,r1	! 6019ed8 <_SCL_SetConfig>
 6010d80:	41 0b       	jsr	@r1
 6010d82:	00 09       	nop	
	
	//setup VRAM configuration
	SCL_InitVramConfigTb(&vram_cfg);
 6010d84:	61 e3       	mov	r14,r1
 6010d86:	64 13       	mov	r1,r4
 6010d88:	d1 42       	mov.l	6010e94 <_scroll_init+0x374>,r1	! 6019b3c <_SCL_InitVramConfigTb>
 6010d8a:	41 0b       	jsr	@r1
 6010d8c:	00 09       	nop	
		vram_cfg.vramModeA = ON; //separate VRAM A into A0 & A1
 6010d8e:	61 e3       	mov	r14,r1
 6010d90:	e2 01       	mov	#1,r2
 6010d92:	60 23       	mov	r2,r0
 6010d94:	80 18       	mov.b	r0,@(8,r1)
		vram_cfg.vramModeB = ON; //separate VRAM B into B0 & B1
 6010d96:	61 e3       	mov	r14,r1
 6010d98:	e2 01       	mov	#1,r2
 6010d9a:	60 23       	mov	r2,r0
 6010d9c:	80 19       	mov.b	r0,@(9,r1)
	SCL_SetVramConfig(&vram_cfg);
 6010d9e:	61 e3       	mov	r14,r1
 6010da0:	64 13       	mov	r1,r4
 6010da2:	d1 3d       	mov.l	6010e98 <_scroll_init+0x378>,r1	! 6019b4a <_SCL_SetVramConfig>
 6010da4:	41 0b       	jsr	@r1
 6010da6:	00 09       	nop	

	//setup vram access pattern
	SCL_SetCycleTable(CycleTbLoRes);
 6010da8:	d1 3c       	mov.l	6010e9c <_scroll_init+0x37c>,r1	! 601f080 <_CycleTbLoRes>
 6010daa:	64 13       	mov	r1,r4
 6010dac:	d1 3c       	mov.l	6010ea0 <_scroll_init+0x380>,r1	! 601a4ec <_SCL_SetCycleTable>
 6010dae:	41 0b       	jsr	@r1
 6010db0:	00 09       	nop	
	 
	SCL_Open(SCL_NBG0);
 6010db2:	e4 04       	mov	#4,r4
 6010db4:	d1 3b       	mov.l	6010ea4 <_scroll_init+0x384>,r1	! 601953c <_SCL_Open>
 6010db6:	41 0b       	jsr	@r1
 6010db8:	00 09       	nop	
		SCL_MoveTo(FIXED(0), FIXED(0), 0); //home position
 6010dba:	e6 00       	mov	#0,r6
 6010dbc:	e5 00       	mov	#0,r5
 6010dbe:	e4 00       	mov	#0,r4
 6010dc0:	d1 39       	mov.l	6010ea8 <_scroll_init+0x388>,r1	! 601956c <_SCL_MoveTo>
 6010dc2:	41 0b       	jsr	@r1
 6010dc4:	00 09       	nop	
	SCL_Close();
 6010dc6:	d1 39       	mov.l	6010eac <_scroll_init+0x38c>,r1	! 6019558 <_SCL_Close>
 6010dc8:	41 0b       	jsr	@r1
 6010dca:	00 09       	nop	
	SCL_Open(SCL_NBG1);
 6010dcc:	e4 08       	mov	#8,r4
 6010dce:	d1 35       	mov.l	6010ea4 <_scroll_init+0x384>,r1	! 601953c <_SCL_Open>
 6010dd0:	41 0b       	jsr	@r1
 6010dd2:	00 09       	nop	
		SCL_MoveTo(FIXED(0), FIXED(0), 0);
 6010dd4:	e6 00       	mov	#0,r6
 6010dd6:	e5 00       	mov	#0,r5
 6010dd8:	e4 00       	mov	#0,r4
 6010dda:	d1 33       	mov.l	6010ea8 <_scroll_init+0x388>,r1	! 601956c <_SCL_MoveTo>
 6010ddc:	41 0b       	jsr	@r1
 6010dde:	00 09       	nop	
	SCL_Close();
 6010de0:	d1 32       	mov.l	6010eac <_scroll_init+0x38c>,r1	! 6019558 <_SCL_Close>
 6010de2:	41 0b       	jsr	@r1
 6010de4:	00 09       	nop	
	SCL_Open(SCL_NBG2);
 6010de6:	e4 10       	mov	#16,r4
 6010de8:	d1 2e       	mov.l	6010ea4 <_scroll_init+0x384>,r1	! 601953c <_SCL_Open>
 6010dea:	41 0b       	jsr	@r1
 6010dec:	00 09       	nop	
		SCL_MoveTo(FIXED(0), FIXED(0), 0);
 6010dee:	e6 00       	mov	#0,r6
 6010df0:	e5 00       	mov	#0,r5
 6010df2:	e4 00       	mov	#0,r4
 6010df4:	d1 2c       	mov.l	6010ea8 <_scroll_init+0x388>,r1	! 601956c <_SCL_MoveTo>
 6010df6:	41 0b       	jsr	@r1
 6010df8:	00 09       	nop	
	SCL_Close();
 6010dfa:	d1 2c       	mov.l	6010eac <_scroll_init+0x38c>,r1	! 6019558 <_SCL_Close>
 6010dfc:	41 0b       	jsr	@r1
 6010dfe:	00 09       	nop	
	SCL_Open(SCL_NBG3);
 6010e00:	e4 20       	mov	#32,r4
 6010e02:	d1 28       	mov.l	6010ea4 <_scroll_init+0x384>,r1	! 601953c <_SCL_Open>
 6010e04:	41 0b       	jsr	@r1
 6010e06:	00 09       	nop	
		SCL_MoveTo(FIXED(0), FIXED(0), 0);
 6010e08:	e6 00       	mov	#0,r6
 6010e0a:	e5 00       	mov	#0,r5
 6010e0c:	e4 00       	mov	#0,r4
 6010e0e:	d1 26       	mov.l	6010ea8 <_scroll_init+0x388>,r1	! 601956c <_SCL_MoveTo>
 6010e10:	41 0b       	jsr	@r1
 6010e12:	00 09       	nop	
	SCL_Close();
 6010e14:	d1 25       	mov.l	6010eac <_scroll_init+0x38c>,r1	! 6019558 <_SCL_Close>
 6010e16:	41 0b       	jsr	@r1
 6010e18:	00 09       	nop	
	scroll_scale(0, FIXED(1));
 6010e1a:	d1 25       	mov.l	6010eb0 <_scroll_init+0x390>,r1	! 10000
 6010e1c:	65 13       	mov	r1,r5
 6010e1e:	e4 00       	mov	#0,r4
 6010e20:	d1 24       	mov.l	6010eb4 <_scroll_init+0x394>,r1	! 6011104 <_scroll_scale>
 6010e22:	41 0b       	jsr	@r1
 6010e24:	00 09       	nop	
	scroll_scale(1, FIXED(1));
 6010e26:	d1 22       	mov.l	6010eb0 <_scroll_init+0x390>,r1	! 10000
 6010e28:	65 13       	mov	r1,r5
 6010e2a:	e4 01       	mov	#1,r4
 6010e2c:	d1 21       	mov.l	6010eb4 <_scroll_init+0x394>,r1	! 6011104 <_scroll_scale>
 6010e2e:	41 0b       	jsr	@r1
 6010e30:	00 09       	nop	

	SCL_SetPriority(SCL_SPR, 7);
 6010e32:	91 22       	mov.w	6010e7a <_scroll_init+0x35a>,r1	! 100
 6010e34:	e5 07       	mov	#7,r5
 6010e36:	64 13       	mov	r1,r4
 6010e38:	d1 1f       	mov.l	6010eb8 <_scroll_init+0x398>,r1	! 601c960 <_SCL_SetPriority>
 6010e3a:	41 0b       	jsr	@r1
 6010e3c:	00 09       	nop	
	SCL_SetPriority(SCL_NBG0, 6);
 6010e3e:	e5 06       	mov	#6,r5
 6010e40:	e4 04       	mov	#4,r4
 6010e42:	d1 1d       	mov.l	6010eb8 <_scroll_init+0x398>,r1	! 601c960 <_SCL_SetPriority>
 6010e44:	41 0b       	jsr	@r1
 6010e46:	00 09       	nop	
	SCL_SetPriority(SCL_NBG1, 5);
 6010e48:	e5 05       	mov	#5,r5
 6010e4a:	e4 08       	mov	#8,r4
 6010e4c:	d1 1a       	mov.l	6010eb8 <_scroll_init+0x398>,r1	! 601c960 <_SCL_SetPriority>
 6010e4e:	41 0b       	jsr	@r1
 6010e50:	00 09       	nop	
	SCL_SetPriority(SCL_NBG2, 4);
 6010e52:	e5 04       	mov	#4,r5
 6010e54:	e4 10       	mov	#16,r4
 6010e56:	d1 18       	mov.l	6010eb8 <_scroll_init+0x398>,r1	! 601c960 <_SCL_SetPriority>
 6010e58:	41 0b       	jsr	@r1
 6010e5a:	00 09       	nop	
	SCL_SetPriority(SCL_NBG3, 3); //set layer priorities
 6010e5c:	e5 03       	mov	#3,r5
 6010e5e:	e4 20       	mov	#32,r4
 6010e60:	d1 15       	mov.l	6010eb8 <_scroll_init+0x398>,r1	! 601c960 <_SCL_SetPriority>
 6010e62:	41 0b       	jsr	@r1
 6010e64:	00 09       	nop	
}
 6010e66:	00 09       	nop	
 6010e68:	7e 1c       	add	#28,r14
 6010e6a:	6f e3       	mov	r14,r15
 6010e6c:	4f 26       	lds.l	@r15+,pr
 6010e6e:	6e f6       	mov.l	@r15+,r14
 6010e70:	00 0b       	rts	
 6010e72:	00 09       	nop	
 6010e74:	00 e4       	mov.b	r14,@(r0,r0)
 6010e76:	00 98       	.word 0x0098
 6010e78:	00 e0       	.word 0x00e0
 6010e7a:	01 00       	.word 0x0100
 6010e7c:	06 01       	.word 0x0601
 6010e7e:	f0 60       	.word 0xf060
 6010e80:	06 02       	stc	sr,r6
 6010e82:	1c 48       	mov.l	r4,@(32,r12)
 6010e84:	06 02       	stc	sr,r6
 6010e86:	1c e0       	mov.l	r14,@(0,r12)
 6010e88:	06 01       	.word 0x0601
 6010e8a:	9e d8       	mov.w	601103e <_scroll_tileptr+0x4e>,r14	! 72cc
 6010e8c:	06 01       	.word 0x0601
 6010e8e:	e0 18       	mov	#24,r0
 6010e90:	06 02       	stc	sr,r6
 6010e92:	1d 2c       	mov.l	r2,@(48,r13)
 6010e94:	06 01       	.word 0x0601
 6010e96:	9b 3c       	mov.w	6010f12 <_scroll_loadtile+0x56>,r11	! 62e3
 6010e98:	06 01       	.word 0x0601
 6010e9a:	9b 4a       	mov.w	6010f32 <_scroll_loadtile+0x76>,r11	! 71dc
 6010e9c:	06 01       	.word 0x0601
 6010e9e:	f0 80       	.word 0xf080
 6010ea0:	06 01       	.word 0x0601
 6010ea2:	a4 ec       	bra	601187e <_sound_play+0x16>
 6010ea4:	06 01       	.word 0x0601
 6010ea6:	95 3c       	mov.w	6010f22 <_scroll_loadtile+0x66>,r5	! 410b
 6010ea8:	06 01       	.word 0x0601
 6010eaa:	95 6c       	mov.w	6010f86 <_scroll_loadtile+0xca>,r5	! 71dc
 6010eac:	06 01       	.word 0x0601
 6010eae:	95 58       	mov.w	6010f62 <_scroll_loadtile+0xa6>,r5	! 71dc
 6010eb0:	00 01       	.word 0x0001
 6010eb2:	00 00       	.word 0x0000
 6010eb4:	06 01       	.word 0x0601
 6010eb6:	11 04       	mov.l	r0,@(16,r1)
 6010eb8:	06 01       	.word 0x0601
 6010eba:	c9 60       	and	#96,r0

06010ebc <_scroll_loadtile>:

int scroll_loadtile(void *src, volatile void *dest, Uint32 object, Uint16 palno) {
 6010ebc:	2f e6       	mov.l	r14,@-r15
 6010ebe:	4f 22       	sts.l	pr,@-r15
 6010ec0:	7f e4       	add	#-28,r15
 6010ec2:	6e f3       	mov	r15,r14
 6010ec4:	61 e3       	mov	r14,r1
 6010ec6:	71 dc       	add	#-36,r1
 6010ec8:	11 4c       	mov.l	r4,@(48,r1)
 6010eca:	61 e3       	mov	r14,r1
 6010ecc:	71 dc       	add	#-36,r1
 6010ece:	11 5b       	mov.l	r5,@(44,r1)
 6010ed0:	61 e3       	mov	r14,r1
 6010ed2:	71 dc       	add	#-36,r1
 6010ed4:	11 6a       	mov.l	r6,@(40,r1)
 6010ed6:	62 73       	mov	r7,r2
 6010ed8:	61 e3       	mov	r14,r1
 6010eda:	71 fc       	add	#-4,r1
 6010edc:	60 23       	mov	r2,r0
 6010ede:	81 12       	mov.w	r0,@(4,r1)
	Uint32 pal_len;
	memcpy(&pal_len, src, sizeof(pal_len));
 6010ee0:	61 e3       	mov	r14,r1
 6010ee2:	71 dc       	add	#-36,r1
 6010ee4:	62 e3       	mov	r14,r2
 6010ee6:	72 14       	add	#20,r2
 6010ee8:	e6 04       	mov	#4,r6
 6010eea:	55 1c       	mov.l	@(48,r1),r5
 6010eec:	64 23       	mov	r2,r4
 6010eee:	d1 3e       	mov.l	6010fe8 <_scroll_loadtile+0x12c>,r1	! 601e9e8 <_memcpy>
 6010ef0:	41 0b       	jsr	@r1
 6010ef2:	00 09       	nop	
	src += 4;
 6010ef4:	61 e3       	mov	r14,r1
 6010ef6:	71 dc       	add	#-36,r1
 6010ef8:	62 e3       	mov	r14,r2
 6010efa:	72 dc       	add	#-36,r2
 6010efc:	52 2c       	mov.l	@(48,r2),r2
 6010efe:	72 04       	add	#4,r2
 6010f00:	11 2c       	mov.l	r2,@(48,r1)
	SCL_SetColRam(object, palno, pal_len, src);
 6010f02:	61 e3       	mov	r14,r1
 6010f04:	71 fc       	add	#-4,r1
 6010f06:	85 12       	mov.w	@(4,r1),r0
 6010f08:	61 03       	mov	r0,r1
 6010f0a:	63 1d       	extu.w	r1,r3
 6010f0c:	61 e3       	mov	r14,r1
 6010f0e:	71 dc       	add	#-36,r1
 6010f10:	56 1e       	mov.l	@(56,r1),r6
 6010f12:	62 e3       	mov	r14,r2
 6010f14:	72 dc       	add	#-36,r2
 6010f16:	61 e3       	mov	r14,r1
 6010f18:	71 dc       	add	#-36,r1
 6010f1a:	57 2c       	mov.l	@(48,r2),r7
 6010f1c:	65 33       	mov	r3,r5
 6010f1e:	54 1a       	mov.l	@(40,r1),r4
 6010f20:	d1 32       	mov.l	6010fec <_scroll_loadtile+0x130>,r1	! 601c598 <_SCL_SetColRam>
 6010f22:	41 0b       	jsr	@r1
 6010f24:	00 09       	nop	
	src += (pal_len * sizeof(Uint32));
 6010f26:	61 e3       	mov	r14,r1
 6010f28:	71 dc       	add	#-36,r1
 6010f2a:	51 1e       	mov.l	@(56,r1),r1
 6010f2c:	62 13       	mov	r1,r2
 6010f2e:	42 08       	shll2	r2
 6010f30:	61 e3       	mov	r14,r1
 6010f32:	71 dc       	add	#-36,r1
 6010f34:	63 e3       	mov	r14,r3
 6010f36:	73 dc       	add	#-36,r3
 6010f38:	53 3c       	mov.l	@(48,r3),r3
 6010f3a:	32 3c       	add	r3,r2
 6010f3c:	11 2c       	mov.l	r2,@(48,r1)
	Uint32 image_size;
	memcpy(&image_size, src, sizeof(image_size));
 6010f3e:	61 e3       	mov	r14,r1
 6010f40:	71 dc       	add	#-36,r1
 6010f42:	62 e3       	mov	r14,r2
 6010f44:	72 10       	add	#16,r2
 6010f46:	e6 04       	mov	#4,r6
 6010f48:	55 1c       	mov.l	@(48,r1),r5
 6010f4a:	64 23       	mov	r2,r4
 6010f4c:	d1 26       	mov.l	6010fe8 <_scroll_loadtile+0x12c>,r1	! 601e9e8 <_memcpy>
 6010f4e:	41 0b       	jsr	@r1
 6010f50:	00 09       	nop	
	src += sizeof(Uint32);
 6010f52:	61 e3       	mov	r14,r1
 6010f54:	71 dc       	add	#-36,r1
 6010f56:	62 e3       	mov	r14,r2
 6010f58:	72 dc       	add	#-36,r2
 6010f5a:	52 2c       	mov.l	@(48,r2),r2
 6010f5c:	72 04       	add	#4,r2
 6010f5e:	11 2c       	mov.l	r2,@(48,r1)
	if (dest) {
 6010f60:	61 e3       	mov	r14,r1
 6010f62:	71 dc       	add	#-36,r1
 6010f64:	51 1b       	mov.l	@(44,r1),r1
 6010f66:	21 18       	tst	r1,r1
 6010f68:	89 24       	bt	6010fb4 <_scroll_loadtile+0xf8>
		for (int i = 0; i < image_size; i++) {
 6010f6a:	61 e3       	mov	r14,r1
 6010f6c:	71 dc       	add	#-36,r1
 6010f6e:	e2 00       	mov	#0,r2
 6010f70:	11 2f       	mov.l	r2,@(60,r1)
 6010f72:	a0 17       	bra	6010fa4 <_scroll_loadtile+0xe8>
 6010f74:	00 09       	nop	
			((volatile char *)dest)[i] = ((char *)src)[i];
 6010f76:	61 e3       	mov	r14,r1
 6010f78:	71 dc       	add	#-36,r1
 6010f7a:	51 1f       	mov.l	@(60,r1),r1
 6010f7c:	62 e3       	mov	r14,r2
 6010f7e:	72 dc       	add	#-36,r2
 6010f80:	52 2c       	mov.l	@(48,r2),r2
 6010f82:	32 1c       	add	r1,r2
 6010f84:	61 e3       	mov	r14,r1
 6010f86:	71 dc       	add	#-36,r1
 6010f88:	51 1f       	mov.l	@(60,r1),r1
 6010f8a:	63 e3       	mov	r14,r3
 6010f8c:	73 dc       	add	#-36,r3
 6010f8e:	53 3b       	mov.l	@(44,r3),r3
 6010f90:	31 3c       	add	r3,r1
 6010f92:	62 20       	mov.b	@r2,r2
 6010f94:	21 20       	mov.b	r2,@r1
		for (int i = 0; i < image_size; i++) {
 6010f96:	61 e3       	mov	r14,r1
 6010f98:	71 dc       	add	#-36,r1
 6010f9a:	62 e3       	mov	r14,r2
 6010f9c:	72 dc       	add	#-36,r2
 6010f9e:	52 2f       	mov.l	@(60,r2),r2
 6010fa0:	72 01       	add	#1,r2
 6010fa2:	11 2f       	mov.l	r2,@(60,r1)
 6010fa4:	61 e3       	mov	r14,r1
 6010fa6:	71 dc       	add	#-36,r1
 6010fa8:	52 1f       	mov.l	@(60,r1),r2
 6010faa:	61 e3       	mov	r14,r1
 6010fac:	71 dc       	add	#-36,r1
 6010fae:	51 1d       	mov.l	@(52,r1),r1
 6010fb0:	32 12       	cmp/hs	r1,r2
 6010fb2:	8b e0       	bf	6010f76 <_scroll_loadtile+0xba>
		}
	}
	if (pal_len == 16) {
 6010fb4:	61 e3       	mov	r14,r1
 6010fb6:	71 dc       	add	#-36,r1
 6010fb8:	52 1e       	mov.l	@(56,r1),r2
 6010fba:	e1 10       	mov	#16,r1
 6010fbc:	32 10       	cmp/eq	r1,r2
 6010fbe:	8b 08       	bf	6010fd2 <_scroll_loadtile+0x116>
		return image_size / 128;
 6010fc0:	61 e3       	mov	r14,r1
 6010fc2:	71 dc       	add	#-36,r1
 6010fc4:	51 1d       	mov.l	@(52,r1),r1
 6010fc6:	41 09       	shlr2	r1
 6010fc8:	41 09       	shlr2	r1
 6010fca:	41 01       	shlr	r1
 6010fcc:	41 09       	shlr2	r1
 6010fce:	a0 04       	bra	6010fda <_scroll_loadtile+0x11e>
 6010fd0:	00 09       	nop	
	}
	else {
		return image_size / 256;
 6010fd2:	61 e3       	mov	r14,r1
 6010fd4:	71 dc       	add	#-36,r1
 6010fd6:	51 1d       	mov.l	@(52,r1),r1
 6010fd8:	41 19       	shlr8	r1
	}
}
 6010fda:	60 13       	mov	r1,r0
 6010fdc:	7e 1c       	add	#28,r14
 6010fde:	6f e3       	mov	r14,r15
 6010fe0:	4f 26       	lds.l	@r15+,pr
 6010fe2:	6e f6       	mov.l	@r15+,r14
 6010fe4:	00 0b       	rts	
 6010fe6:	00 09       	nop	
 6010fe8:	06 01       	.word 0x0601
 6010fea:	e9 e8       	mov	#-24,r9
 6010fec:	06 01       	.word 0x0601
 6010fee:	c5 98       	mov.w	@(304,gbr),r0

06010ff0 <_scroll_tileptr>:

char *scroll_tileptr(void *buff, int *size) {
 6010ff0:	2f e6       	mov.l	r14,@-r15
 6010ff2:	4f 22       	sts.l	pr,@-r15
 6010ff4:	7f f4       	add	#-12,r15
 6010ff6:	6e f3       	mov	r15,r14
 6010ff8:	61 e3       	mov	r14,r1
 6010ffa:	71 cc       	add	#-52,r1
 6010ffc:	11 4e       	mov.l	r4,@(56,r1)
 6010ffe:	61 e3       	mov	r14,r1
 6011000:	71 cc       	add	#-52,r1
 6011002:	11 5d       	mov.l	r5,@(52,r1)
	Sint32 pal_len;
	memcpy(&pal_len, buff, sizeof(pal_len));
 6011004:	61 e3       	mov	r14,r1
 6011006:	71 cc       	add	#-52,r1
 6011008:	62 e3       	mov	r14,r2
 601100a:	72 08       	add	#8,r2
 601100c:	e6 04       	mov	#4,r6
 601100e:	55 1e       	mov.l	@(56,r1),r5
 6011010:	64 23       	mov	r2,r4
 6011012:	d1 18       	mov.l	6011074 <_scroll_tileptr+0x84>,r1	! 601e9e8 <_memcpy>
 6011014:	41 0b       	jsr	@r1
 6011016:	00 09       	nop	
	buff += (pal_len + 1) * sizeof(pal_len);
 6011018:	61 e3       	mov	r14,r1
 601101a:	71 cc       	add	#-52,r1
 601101c:	51 1f       	mov.l	@(60,r1),r1
 601101e:	71 01       	add	#1,r1
 6011020:	62 13       	mov	r1,r2
 6011022:	42 08       	shll2	r2
 6011024:	61 e3       	mov	r14,r1
 6011026:	71 cc       	add	#-52,r1
 6011028:	63 e3       	mov	r14,r3
 601102a:	73 cc       	add	#-52,r3
 601102c:	53 3e       	mov.l	@(56,r3),r3
 601102e:	32 3c       	add	r3,r2
 6011030:	11 2e       	mov.l	r2,@(56,r1)
	if (size) {
 6011032:	61 e3       	mov	r14,r1
 6011034:	71 cc       	add	#-52,r1
 6011036:	51 1d       	mov.l	@(52,r1),r1
 6011038:	21 18       	tst	r1,r1
 601103a:	89 09       	bt	6011050 <_scroll_tileptr+0x60>
		memcpy(size, buff, sizeof(*size));
 601103c:	62 e3       	mov	r14,r2
 601103e:	72 cc       	add	#-52,r2
 6011040:	61 e3       	mov	r14,r1
 6011042:	71 cc       	add	#-52,r1
 6011044:	e6 04       	mov	#4,r6
 6011046:	55 2e       	mov.l	@(56,r2),r5
 6011048:	54 1d       	mov.l	@(52,r1),r4
 601104a:	d1 0a       	mov.l	6011074 <_scroll_tileptr+0x84>,r1	! 601e9e8 <_memcpy>
 601104c:	41 0b       	jsr	@r1
 601104e:	00 09       	nop	
	}
	buff += sizeof(size);
 6011050:	61 e3       	mov	r14,r1
 6011052:	71 cc       	add	#-52,r1
 6011054:	62 e3       	mov	r14,r2
 6011056:	72 cc       	add	#-52,r2
 6011058:	52 2e       	mov.l	@(56,r2),r2
 601105a:	72 04       	add	#4,r2
 601105c:	11 2e       	mov.l	r2,@(56,r1)
	return (char *)buff;
 601105e:	61 e3       	mov	r14,r1
 6011060:	71 cc       	add	#-52,r1
 6011062:	51 1e       	mov.l	@(56,r1),r1
}
 6011064:	60 13       	mov	r1,r0
 6011066:	7e 0c       	add	#12,r14
 6011068:	6f e3       	mov	r14,r15
 601106a:	4f 26       	lds.l	@r15+,pr
 601106c:	6e f6       	mov.l	@r15+,r14
 601106e:	00 0b       	rts	
 6011070:	00 09       	nop	
 6011072:	00 09       	nop	
 6011074:	06 01       	.word 0x0601
 6011076:	e9 e8       	mov	#-24,r9

06011078 <_scroll_mapptr>:

char *scroll_mapptr(void *buff, int *xsize, int *ysize) {
 6011078:	2f e6       	mov.l	r14,@-r15
 601107a:	4f 22       	sts.l	pr,@-r15
 601107c:	7f f4       	add	#-12,r15
 601107e:	6e f3       	mov	r15,r14
 6011080:	61 e3       	mov	r14,r1
 6011082:	71 cc       	add	#-52,r1
 6011084:	11 4f       	mov.l	r4,@(60,r1)
 6011086:	61 e3       	mov	r14,r1
 6011088:	71 cc       	add	#-52,r1
 601108a:	11 5e       	mov.l	r5,@(56,r1)
 601108c:	61 e3       	mov	r14,r1
 601108e:	71 cc       	add	#-52,r1
 6011090:	11 6d       	mov.l	r6,@(52,r1)
	if (xsize) {
 6011092:	61 e3       	mov	r14,r1
 6011094:	71 cc       	add	#-52,r1
 6011096:	51 1e       	mov.l	@(56,r1),r1
 6011098:	21 18       	tst	r1,r1
 601109a:	89 09       	bt	60110b0 <_scroll_mapptr+0x38>
		memcpy(xsize, buff, sizeof(int));
 601109c:	62 e3       	mov	r14,r2
 601109e:	72 cc       	add	#-52,r2
 60110a0:	61 e3       	mov	r14,r1
 60110a2:	71 cc       	add	#-52,r1
 60110a4:	e6 04       	mov	#4,r6
 60110a6:	55 2f       	mov.l	@(60,r2),r5
 60110a8:	54 1e       	mov.l	@(56,r1),r4
 60110aa:	d1 15       	mov.l	6011100 <_scroll_mapptr+0x88>,r1	! 601e9e8 <_memcpy>
 60110ac:	41 0b       	jsr	@r1
 60110ae:	00 09       	nop	
	}
	buff += sizeof(int);
 60110b0:	61 e3       	mov	r14,r1
 60110b2:	71 cc       	add	#-52,r1
 60110b4:	62 e3       	mov	r14,r2
 60110b6:	72 cc       	add	#-52,r2
 60110b8:	52 2f       	mov.l	@(60,r2),r2
 60110ba:	72 04       	add	#4,r2
 60110bc:	11 2f       	mov.l	r2,@(60,r1)
	if (ysize) {
 60110be:	61 e3       	mov	r14,r1
 60110c0:	71 cc       	add	#-52,r1
 60110c2:	51 1d       	mov.l	@(52,r1),r1
 60110c4:	21 18       	tst	r1,r1
 60110c6:	89 09       	bt	60110dc <_scroll_mapptr+0x64>
		memcpy(ysize, buff, sizeof(int));
 60110c8:	62 e3       	mov	r14,r2
 60110ca:	72 cc       	add	#-52,r2
 60110cc:	61 e3       	mov	r14,r1
 60110ce:	71 cc       	add	#-52,r1
 60110d0:	e6 04       	mov	#4,r6
 60110d2:	55 2f       	mov.l	@(60,r2),r5
 60110d4:	54 1d       	mov.l	@(52,r1),r4
 60110d6:	d1 0a       	mov.l	6011100 <_scroll_mapptr+0x88>,r1	! 601e9e8 <_memcpy>
 60110d8:	41 0b       	jsr	@r1
 60110da:	00 09       	nop	
	}
	buff += sizeof(int);
 60110dc:	61 e3       	mov	r14,r1
 60110de:	71 cc       	add	#-52,r1
 60110e0:	62 e3       	mov	r14,r2
 60110e2:	72 cc       	add	#-52,r2
 60110e4:	52 2f       	mov.l	@(60,r2),r2
 60110e6:	72 04       	add	#4,r2
 60110e8:	11 2f       	mov.l	r2,@(60,r1)
	return (char *)buff;
 60110ea:	61 e3       	mov	r14,r1
 60110ec:	71 cc       	add	#-52,r1
 60110ee:	51 1f       	mov.l	@(60,r1),r1
}
 60110f0:	60 13       	mov	r1,r0
 60110f2:	7e 0c       	add	#12,r14
 60110f4:	6f e3       	mov	r14,r15
 60110f6:	4f 26       	lds.l	@r15+,pr
 60110f8:	6e f6       	mov.l	@r15+,r14
 60110fa:	00 0b       	rts	
 60110fc:	00 09       	nop	
 60110fe:	00 09       	nop	
 6011100:	06 01       	.word 0x0601
 6011102:	e9 e8       	mov	#-24,r9

06011104 <_scroll_scale>:
#define ZOOM_HALF_NBG1 (0x100)
#define ZOOM_QUARTER_NBG1 (0x200)
#define LOW_BYTE (0xFF)
#define HIGH_BYTE (0xFF00)

void scroll_scale(int num, Fixed32 scale) {
 6011104:	2f e6       	mov.l	r14,@-r15
 6011106:	4f 22       	sts.l	pr,@-r15
 6011108:	7f f8       	add	#-8,r15
 601110a:	6e f3       	mov	r15,r14
 601110c:	61 e3       	mov	r14,r1
 601110e:	71 c8       	add	#-56,r1
 6011110:	11 4f       	mov.l	r4,@(60,r1)
 6011112:	61 e3       	mov	r14,r1
 6011114:	71 c8       	add	#-56,r1
 6011116:	11 5e       	mov.l	r5,@(56,r1)
	SCL_Open(1 << (num + 2));
 6011118:	61 e3       	mov	r14,r1
 601111a:	71 c8       	add	#-56,r1
 601111c:	51 1f       	mov.l	@(60,r1),r1
 601111e:	71 02       	add	#2,r1
 6011120:	e2 01       	mov	#1,r2
 6011122:	64 23       	mov	r2,r4
 6011124:	d2 47       	mov.l	6011244 <_scroll_scale+0x140>,r2	! 601df60 <___ashlsi3_r0>
 6011126:	60 13       	mov	r1,r0
 6011128:	42 0b       	jsr	@r2
 601112a:	00 09       	nop	
 601112c:	61 03       	mov	r0,r1
 601112e:	64 13       	mov	r1,r4
 6011130:	d1 45       	mov.l	6011248 <_scroll_scale+0x144>,r1	! 601953c <_SCL_Open>
 6011132:	41 0b       	jsr	@r1
 6011134:	00 09       	nop	
		SCL_Scale(scale, scale);
 6011136:	62 e3       	mov	r14,r2
 6011138:	72 c8       	add	#-56,r2
 601113a:	61 e3       	mov	r14,r1
 601113c:	71 c8       	add	#-56,r1
 601113e:	55 2e       	mov.l	@(56,r2),r5
 6011140:	54 1e       	mov.l	@(56,r1),r4
 6011142:	d1 42       	mov.l	601124c <_scroll_scale+0x148>,r1	! 601978c <_SCL_Scale>
 6011144:	41 0b       	jsr	@r1
 6011146:	00 09       	nop	
	SCL_Close();
 6011148:	d1 41       	mov.l	6011250 <_scroll_scale+0x14c>,r1	! 6019558 <_SCL_Close>
 601114a:	41 0b       	jsr	@r1
 601114c:	00 09       	nop	
	//reset the configuration byte for the given background
	Scl_n_reg.zoomenbl &= (num == 0 ? HIGH_BYTE : LOW_BYTE);
 601114e:	d1 41       	mov.l	6011254 <_scroll_scale+0x150>,r1	! 60352f4 <_Scl_n_reg>
 6011150:	71 20       	add	#32,r1
 6011152:	85 14       	mov.w	@(8,r1),r0
 6011154:	61 03       	mov	r0,r1
 6011156:	61 1d       	extu.w	r1,r1
 6011158:	62 1f       	exts.w	r1,r2
 601115a:	61 e3       	mov	r14,r1
 601115c:	71 c8       	add	#-56,r1
 601115e:	51 1f       	mov.l	@(60,r1),r1
 6011160:	21 18       	tst	r1,r1
 6011162:	8b 02       	bf	601116a <_scroll_scale+0x66>
 6011164:	91 67       	mov.w	6011236 <_scroll_scale+0x132>,r1	! ff00
 6011166:	a0 01       	bra	601116c <_scroll_scale+0x68>
 6011168:	00 09       	nop	
 601116a:	91 65       	mov.w	6011238 <_scroll_scale+0x134>,r1	! ff
 601116c:	21 29       	and	r2,r1
 601116e:	61 1f       	exts.w	r1,r1
 6011170:	62 1d       	extu.w	r1,r2
 6011172:	d1 38       	mov.l	6011254 <_scroll_scale+0x150>,r1	! 60352f4 <_Scl_n_reg>
 6011174:	71 20       	add	#32,r1
 6011176:	60 23       	mov	r2,r0
 6011178:	81 14       	mov.w	r0,@(8,r1)
	if (scale >= FIXED(1)) {
 601117a:	61 e3       	mov	r14,r1
 601117c:	71 c8       	add	#-56,r1
 601117e:	52 1e       	mov.l	@(56,r1),r2
 6011180:	d1 35       	mov.l	6011258 <_scroll_scale+0x154>,r1	! ffff
 6011182:	32 17       	cmp/gt	r1,r2
 6011184:	8b 17       	bf	60111b6 <_scroll_scale+0xb2>
		Scl_n_reg.zoomenbl &= (num == 0 ? ~(ZOOM_HALF_NBG0 | ZOOM_QUARTER_NBG0)
 6011186:	d1 33       	mov.l	6011254 <_scroll_scale+0x150>,r1	! 60352f4 <_Scl_n_reg>
 6011188:	71 20       	add	#32,r1
 601118a:	85 14       	mov.w	@(8,r1),r0
 601118c:	61 03       	mov	r0,r1
 601118e:	61 1d       	extu.w	r1,r1
 6011190:	62 1f       	exts.w	r1,r2
 6011192:	61 e3       	mov	r14,r1
 6011194:	71 c8       	add	#-56,r1
 6011196:	51 1f       	mov.l	@(60,r1),r1
 6011198:	21 18       	tst	r1,r1
 601119a:	8b 02       	bf	60111a2 <_scroll_scale+0x9e>
 601119c:	e1 fc       	mov	#-4,r1
 601119e:	a0 01       	bra	60111a4 <_scroll_scale+0xa0>
 60111a0:	00 09       	nop	
 60111a2:	91 4a       	mov.w	601123a <_scroll_scale+0x136>,r1	! fcff
 60111a4:	21 29       	and	r2,r1
 60111a6:	61 1f       	exts.w	r1,r1
 60111a8:	62 1d       	extu.w	r1,r2
 60111aa:	d1 2a       	mov.l	6011254 <_scroll_scale+0x150>,r1	! 60352f4 <_Scl_n_reg>
 60111ac:	71 20       	add	#32,r1
 60111ae:	60 23       	mov	r2,r0
 60111b0:	81 14       	mov.w	r0,@(8,r1)
										: ~(ZOOM_HALF_NBG1 | ZOOM_QUARTER_NBG1));
		return;
 60111b2:	a0 3a       	bra	601122a <_scroll_scale+0x126>
 60111b4:	00 09       	nop	
	}
	else if (scale < FIXED(1) && scale >= FIXED(0.5)) {
 60111b6:	61 e3       	mov	r14,r1
 60111b8:	71 c8       	add	#-56,r1
 60111ba:	52 1e       	mov.l	@(56,r1),r2
 60111bc:	d1 26       	mov.l	6011258 <_scroll_scale+0x154>,r1	! ffff
 60111be:	32 17       	cmp/gt	r1,r2
 60111c0:	89 1d       	bt	60111fe <_scroll_scale+0xfa>
 60111c2:	61 e3       	mov	r14,r1
 60111c4:	71 c8       	add	#-56,r1
 60111c6:	52 1e       	mov.l	@(56,r1),r2
 60111c8:	91 38       	mov.w	601123c <_scroll_scale+0x138>,r1	! 7fff
 60111ca:	32 17       	cmp/gt	r1,r2
 60111cc:	8b 17       	bf	60111fe <_scroll_scale+0xfa>
		Scl_n_reg.zoomenbl |= (num == 0 ? ZOOM_HALF_NBG0 : ZOOM_HALF_NBG1);
 60111ce:	d1 21       	mov.l	6011254 <_scroll_scale+0x150>,r1	! 60352f4 <_Scl_n_reg>
 60111d0:	71 20       	add	#32,r1
 60111d2:	85 14       	mov.w	@(8,r1),r0
 60111d4:	61 03       	mov	r0,r1
 60111d6:	61 1d       	extu.w	r1,r1
 60111d8:	62 1f       	exts.w	r1,r2
 60111da:	61 e3       	mov	r14,r1
 60111dc:	71 c8       	add	#-56,r1
 60111de:	51 1f       	mov.l	@(60,r1),r1
 60111e0:	21 18       	tst	r1,r1
 60111e2:	8b 02       	bf	60111ea <_scroll_scale+0xe6>
 60111e4:	e1 01       	mov	#1,r1
 60111e6:	a0 01       	bra	60111ec <_scroll_scale+0xe8>
 60111e8:	00 09       	nop	
 60111ea:	91 28       	mov.w	601123e <_scroll_scale+0x13a>,r1	! 100
 60111ec:	21 2b       	or	r2,r1
 60111ee:	61 1f       	exts.w	r1,r1
 60111f0:	62 1d       	extu.w	r1,r2
 60111f2:	d1 18       	mov.l	6011254 <_scroll_scale+0x150>,r1	! 60352f4 <_Scl_n_reg>
 60111f4:	71 20       	add	#32,r1
 60111f6:	60 23       	mov	r2,r0
 60111f8:	81 14       	mov.w	r0,@(8,r1)
 60111fa:	a0 16       	bra	601122a <_scroll_scale+0x126>
 60111fc:	00 09       	nop	
	}
	else {
		Scl_n_reg.zoomenbl |= (num == 0 ? ZOOM_QUARTER_NBG0 : ZOOM_QUARTER_NBG1);
 60111fe:	d1 15       	mov.l	6011254 <_scroll_scale+0x150>,r1	! 60352f4 <_Scl_n_reg>
 6011200:	71 20       	add	#32,r1
 6011202:	85 14       	mov.w	@(8,r1),r0
 6011204:	61 03       	mov	r0,r1
 6011206:	61 1d       	extu.w	r1,r1
 6011208:	62 1f       	exts.w	r1,r2
 601120a:	61 e3       	mov	r14,r1
 601120c:	71 c8       	add	#-56,r1
 601120e:	51 1f       	mov.l	@(60,r1),r1
 6011210:	21 18       	tst	r1,r1
 6011212:	8b 02       	bf	601121a <_scroll_scale+0x116>
 6011214:	e1 02       	mov	#2,r1
 6011216:	a0 01       	bra	601121c <_scroll_scale+0x118>
 6011218:	00 09       	nop	
 601121a:	91 11       	mov.w	6011240 <_scroll_scale+0x13c>,r1	! 200
 601121c:	21 2b       	or	r2,r1
 601121e:	61 1f       	exts.w	r1,r1
 6011220:	62 1d       	extu.w	r1,r2
 6011222:	d1 0c       	mov.l	6011254 <_scroll_scale+0x150>,r1	! 60352f4 <_Scl_n_reg>
 6011224:	71 20       	add	#32,r1
 6011226:	60 23       	mov	r2,r0
 6011228:	81 14       	mov.w	r0,@(8,r1)
	}
}
 601122a:	7e 08       	add	#8,r14
 601122c:	6f e3       	mov	r14,r15
 601122e:	4f 26       	lds.l	@r15+,pr
 6011230:	6e f6       	mov.l	@r15+,r14
 6011232:	00 0b       	rts	
 6011234:	00 09       	nop	
 6011236:	ff 00       	.word 0xff00
 6011238:	00 ff       	mac.l	@r15+,@r0+
 601123a:	fc ff       	.word 0xfcff
 601123c:	7f ff       	add	#-1,r15
 601123e:	01 00       	.word 0x0100
 6011240:	02 00       	.word 0x0200
 6011242:	00 09       	nop	
 6011244:	06 01       	.word 0x0601
 6011246:	df 60       	mov.l	60113c8 <_scroll_clearvram+0x20>,r15	! 61e371c4
 6011248:	06 01       	.word 0x0601
 601124a:	95 3c       	mov.w	60112c6 <_scroll_set+0x6a>,r5	! 956c
 601124c:	06 01       	.word 0x0601
 601124e:	97 8c       	mov.w	601136a <_scroll_clearmaps+0x2e>,r7	! d10d
 6011250:	06 01       	.word 0x0601
 6011252:	95 58       	mov.w	6011306 <_scroll_move+0x3a>,r5	! 72cc
 6011254:	06 03       	bsrf	r6
 6011256:	52 f4       	mov.l	@(16,r15),r2
 6011258:	00 00       	.word 0x0000
 601125a:	ff ff       	.word 0xffff

0601125c <_scroll_set>:

void scroll_set(int num, Fixed32 x, Fixed32 y) {
 601125c:	2f e6       	mov.l	r14,@-r15
 601125e:	4f 22       	sts.l	pr,@-r15
 6011260:	7f f4       	add	#-12,r15
 6011262:	6e f3       	mov	r15,r14
 6011264:	61 e3       	mov	r14,r1
 6011266:	71 cc       	add	#-52,r1
 6011268:	11 4f       	mov.l	r4,@(60,r1)
 601126a:	61 e3       	mov	r14,r1
 601126c:	71 cc       	add	#-52,r1
 601126e:	11 5e       	mov.l	r5,@(56,r1)
 6011270:	61 e3       	mov	r14,r1
 6011272:	71 cc       	add	#-52,r1
 6011274:	11 6d       	mov.l	r6,@(52,r1)
	SCL_Open(1 << (num + 2));
 6011276:	61 e3       	mov	r14,r1
 6011278:	71 cc       	add	#-52,r1
 601127a:	51 1f       	mov.l	@(60,r1),r1
 601127c:	71 02       	add	#2,r1
 601127e:	e2 01       	mov	#1,r2
 6011280:	64 23       	mov	r2,r4
 6011282:	d2 0e       	mov.l	60112bc <_scroll_set+0x60>,r2	! 601df60 <___ashlsi3_r0>
 6011284:	60 13       	mov	r1,r0
 6011286:	42 0b       	jsr	@r2
 6011288:	00 09       	nop	
 601128a:	61 03       	mov	r0,r1
 601128c:	64 13       	mov	r1,r4
 601128e:	d1 0c       	mov.l	60112c0 <_scroll_set+0x64>,r1	! 601953c <_SCL_Open>
 6011290:	41 0b       	jsr	@r1
 6011292:	00 09       	nop	
	SCL_MoveTo(x, y, 0);
 6011294:	62 e3       	mov	r14,r2
 6011296:	72 cc       	add	#-52,r2
 6011298:	61 e3       	mov	r14,r1
 601129a:	71 cc       	add	#-52,r1
 601129c:	e6 00       	mov	#0,r6
 601129e:	55 2d       	mov.l	@(52,r2),r5
 60112a0:	54 1e       	mov.l	@(56,r1),r4
 60112a2:	d1 08       	mov.l	60112c4 <_scroll_set+0x68>,r1	! 601956c <_SCL_MoveTo>
 60112a4:	41 0b       	jsr	@r1
 60112a6:	00 09       	nop	
	SCL_Close();
 60112a8:	d1 07       	mov.l	60112c8 <_scroll_set+0x6c>,r1	! 6019558 <_SCL_Close>
 60112aa:	41 0b       	jsr	@r1
 60112ac:	00 09       	nop	
}
 60112ae:	00 09       	nop	
 60112b0:	7e 0c       	add	#12,r14
 60112b2:	6f e3       	mov	r14,r15
 60112b4:	4f 26       	lds.l	@r15+,pr
 60112b6:	6e f6       	mov.l	@r15+,r14
 60112b8:	00 0b       	rts	
 60112ba:	00 09       	nop	
 60112bc:	06 01       	.word 0x0601
 60112be:	df 60       	mov.l	6011440 <_scroll_charsize+0x48>,r15	! 6103611d
 60112c0:	06 01       	.word 0x0601
 60112c2:	95 3c       	mov.w	601133e <_scroll_clearmaps+0x2>,r5	! 4f22
 60112c4:	06 01       	.word 0x0601
 60112c6:	95 6c       	mov.w	60113a2 <_scroll_clearmaps+0x66>,r5	! f060
 60112c8:	06 01       	.word 0x0601
 60112ca:	95 58       	mov.w	601137e <_scroll_clearmaps+0x42>,r5	! d108

060112cc <_scroll_move>:

void scroll_move(int num, Fixed32 x, Fixed32 y) {
 60112cc:	2f e6       	mov.l	r14,@-r15
 60112ce:	4f 22       	sts.l	pr,@-r15
 60112d0:	7f f4       	add	#-12,r15
 60112d2:	6e f3       	mov	r15,r14
 60112d4:	61 e3       	mov	r14,r1
 60112d6:	71 cc       	add	#-52,r1
 60112d8:	11 4f       	mov.l	r4,@(60,r1)
 60112da:	61 e3       	mov	r14,r1
 60112dc:	71 cc       	add	#-52,r1
 60112de:	11 5e       	mov.l	r5,@(56,r1)
 60112e0:	61 e3       	mov	r14,r1
 60112e2:	71 cc       	add	#-52,r1
 60112e4:	11 6d       	mov.l	r6,@(52,r1)
	SCL_Open(1 << (num + 2));
 60112e6:	61 e3       	mov	r14,r1
 60112e8:	71 cc       	add	#-52,r1
 60112ea:	51 1f       	mov.l	@(60,r1),r1
 60112ec:	71 02       	add	#2,r1
 60112ee:	e2 01       	mov	#1,r2
 60112f0:	64 23       	mov	r2,r4
 60112f2:	d2 0e       	mov.l	601132c <_scroll_move+0x60>,r2	! 601df60 <___ashlsi3_r0>
 60112f4:	60 13       	mov	r1,r0
 60112f6:	42 0b       	jsr	@r2
 60112f8:	00 09       	nop	
 60112fa:	61 03       	mov	r0,r1
 60112fc:	64 13       	mov	r1,r4
 60112fe:	d1 0c       	mov.l	6011330 <_scroll_move+0x64>,r1	! 601953c <_SCL_Open>
 6011300:	41 0b       	jsr	@r1
 6011302:	00 09       	nop	
	SCL_Move(x, y, 0);
 6011304:	62 e3       	mov	r14,r2
 6011306:	72 cc       	add	#-52,r2
 6011308:	61 e3       	mov	r14,r1
 601130a:	71 cc       	add	#-52,r1
 601130c:	e6 00       	mov	#0,r6
 601130e:	55 2d       	mov.l	@(52,r2),r5
 6011310:	54 1e       	mov.l	@(56,r1),r4
 6011312:	d1 08       	mov.l	6011334 <_scroll_move+0x68>,r1	! 6019660 <_SCL_Move>
 6011314:	41 0b       	jsr	@r1
 6011316:	00 09       	nop	
	SCL_Close();
 6011318:	d1 07       	mov.l	6011338 <_scroll_move+0x6c>,r1	! 6019558 <_SCL_Close>
 601131a:	41 0b       	jsr	@r1
 601131c:	00 09       	nop	
}
 601131e:	00 09       	nop	
 6011320:	7e 0c       	add	#12,r14
 6011322:	6f e3       	mov	r14,r15
 6011324:	4f 26       	lds.l	@r15+,pr
 6011326:	6e f6       	mov.l	@r15+,r14
 6011328:	00 0b       	rts	
 601132a:	00 09       	nop	
 601132c:	06 01       	.word 0x0601
 601132e:	df 60       	mov.l	60114b0 <_scroll_enable+0x34>,r15	! 71c8511f
 6011330:	06 01       	.word 0x0601
 6011332:	95 3c       	mov.w	60113ae <_scroll_clearvram+0x6>,r5	! 61e3
 6011334:	06 01       	.word 0x0601
 6011336:	96 60       	mov.w	60113fa <_scroll_charsize+0x2>,r6	! 4f22
 6011338:	06 01       	.word 0x0601
 601133a:	95 58       	mov.w	60113ee <_scroll_clearvram+0x46>,r5	! 9

0601133c <_scroll_clearmaps>:

void scroll_clearmaps(void) {
 601133c:	2f e6       	mov.l	r14,@-r15
 601133e:	4f 22       	sts.l	pr,@-r15
 6011340:	6e f3       	mov	r15,r14
	memset(MAP_PTR(0), 0, 0x2000);
 6011342:	d1 17       	mov.l	60113a0 <_scroll_clearmaps+0x64>,r1	! 601f060 <_vram>
 6011344:	61 12       	mov.l	@r1,r1
 6011346:	62 13       	mov	r1,r2
 6011348:	91 29       	mov.w	601139e <_scroll_clearmaps+0x62>,r1	! 2000 <STK_SIZE>
 601134a:	66 13       	mov	r1,r6
 601134c:	e5 00       	mov	#0,r5
 601134e:	64 23       	mov	r2,r4
 6011350:	d1 14       	mov.l	60113a4 <_scroll_clearmaps+0x68>,r1	! 601eb48 <_memset>
 6011352:	41 0b       	jsr	@r1
 6011354:	00 09       	nop	
	memset(MAP_PTR(1), 0, 0x2000);
 6011356:	d1 12       	mov.l	60113a0 <_scroll_clearmaps+0x64>,r1	! 601f060 <_vram>
 6011358:	51 11       	mov.l	@(4,r1),r1
 601135a:	62 13       	mov	r1,r2
 601135c:	91 1f       	mov.w	601139e <_scroll_clearmaps+0x62>,r1	! 2000 <STK_SIZE>
 601135e:	66 13       	mov	r1,r6
 6011360:	e5 00       	mov	#0,r5
 6011362:	64 23       	mov	r2,r4
 6011364:	d1 0f       	mov.l	60113a4 <_scroll_clearmaps+0x68>,r1	! 601eb48 <_memset>
 6011366:	41 0b       	jsr	@r1
 6011368:	00 09       	nop	
	memset(MAP_PTR(2), 0, 0x2000);
 601136a:	d1 0d       	mov.l	60113a0 <_scroll_clearmaps+0x64>,r1	! 601f060 <_vram>
 601136c:	51 12       	mov.l	@(8,r1),r1
 601136e:	62 13       	mov	r1,r2
 6011370:	91 15       	mov.w	601139e <_scroll_clearmaps+0x62>,r1	! 2000 <STK_SIZE>
 6011372:	66 13       	mov	r1,r6
 6011374:	e5 00       	mov	#0,r5
 6011376:	64 23       	mov	r2,r4
 6011378:	d1 0a       	mov.l	60113a4 <_scroll_clearmaps+0x68>,r1	! 601eb48 <_memset>
 601137a:	41 0b       	jsr	@r1
 601137c:	00 09       	nop	
	memset(MAP_PTR(3), 0, 0x2000);
 601137e:	d1 08       	mov.l	60113a0 <_scroll_clearmaps+0x64>,r1	! 601f060 <_vram>
 6011380:	51 13       	mov.l	@(12,r1),r1
 6011382:	62 13       	mov	r1,r2
 6011384:	91 0b       	mov.w	601139e <_scroll_clearmaps+0x62>,r1	! 2000 <STK_SIZE>
 6011386:	66 13       	mov	r1,r6
 6011388:	e5 00       	mov	#0,r5
 601138a:	64 23       	mov	r2,r4
 601138c:	d1 05       	mov.l	60113a4 <_scroll_clearmaps+0x68>,r1	! 601eb48 <_memset>
 601138e:	41 0b       	jsr	@r1
 6011390:	00 09       	nop	
}
 6011392:	00 09       	nop	
 6011394:	6f e3       	mov	r14,r15
 6011396:	4f 26       	lds.l	@r15+,pr
 6011398:	6e f6       	mov.l	@r15+,r14
 601139a:	00 0b       	rts	
 601139c:	00 09       	nop	
 601139e:	20 00       	mov.b	r0,@r0
 60113a0:	06 01       	.word 0x0601
 60113a2:	f0 60       	.word 0xf060
 60113a4:	06 01       	.word 0x0601
 60113a6:	eb 48       	mov	#72,r11

060113a8 <_scroll_clearvram>:

void scroll_clearvram(void) {
 60113a8:	2f e6       	mov.l	r14,@-r15
 60113aa:	7f fc       	add	#-4,r15
 60113ac:	6e f3       	mov	r15,r14
	for (int i = 0; i < 0x80000; i++) {
 60113ae:	61 e3       	mov	r14,r1
 60113b0:	71 c4       	add	#-60,r1
 60113b2:	e2 00       	mov	#0,r2
 60113b4:	11 2f       	mov.l	r2,@(60,r1)
 60113b6:	a0 0e       	bra	60113d6 <_scroll_clearvram+0x2e>
 60113b8:	00 09       	nop	
		((volatile Uint8 *)SCL_VDP2_VRAM)[i] = 0;
 60113ba:	61 e3       	mov	r14,r1
 60113bc:	71 c4       	add	#-60,r1
 60113be:	51 1f       	mov.l	@(60,r1),r1
 60113c0:	d2 0b       	mov.l	60113f0 <_scroll_clearvram+0x48>,r2	! 25e00000
 60113c2:	31 2c       	add	r2,r1
 60113c4:	e2 00       	mov	#0,r2
 60113c6:	21 20       	mov.b	r2,@r1
	for (int i = 0; i < 0x80000; i++) {
 60113c8:	61 e3       	mov	r14,r1
 60113ca:	71 c4       	add	#-60,r1
 60113cc:	62 e3       	mov	r14,r2
 60113ce:	72 c4       	add	#-60,r2
 60113d0:	52 2f       	mov.l	@(60,r2),r2
 60113d2:	72 01       	add	#1,r2
 60113d4:	11 2f       	mov.l	r2,@(60,r1)
 60113d6:	61 e3       	mov	r14,r1
 60113d8:	71 c4       	add	#-60,r1
 60113da:	52 1f       	mov.l	@(60,r1),r2
 60113dc:	d1 05       	mov.l	60113f4 <_scroll_clearvram+0x4c>,r1	! 7ffff
 60113de:	32 17       	cmp/gt	r1,r2
 60113e0:	8b eb       	bf	60113ba <_scroll_clearvram+0x12>
	}
}
 60113e2:	00 09       	nop	
 60113e4:	00 09       	nop	
 60113e6:	7e 04       	add	#4,r14
 60113e8:	6f e3       	mov	r14,r15
 60113ea:	6e f6       	mov.l	@r15+,r14
 60113ec:	00 0b       	rts	
 60113ee:	00 09       	nop	
 60113f0:	25 e0       	mov.b	r14,@r5
 60113f2:	00 00       	.word 0x0000
 60113f4:	00 07       	mul.l	r0,r0
 60113f6:	ff ff       	.word 0xffff

060113f8 <_scroll_charsize>:

void scroll_charsize(int num, Uint8 size) {
 60113f8:	2f e6       	mov.l	r14,@-r15
 60113fa:	4f 22       	sts.l	pr,@-r15
 60113fc:	7f f8       	add	#-8,r15
 60113fe:	6e f3       	mov	r15,r14
 6011400:	61 e3       	mov	r14,r1
 6011402:	71 c8       	add	#-56,r1
 6011404:	11 4f       	mov.l	r4,@(60,r1)
 6011406:	62 53       	mov	r5,r2
 6011408:	61 e3       	mov	r14,r1
 601140a:	71 f8       	add	#-8,r1
 601140c:	60 23       	mov	r2,r0
 601140e:	80 18       	mov.b	r0,@(8,r1)
	scfg[num].charsize = size;
 6011410:	d1 17       	mov.l	6011470 <_scroll_charsize+0x78>,r1	! 6021c48 <_scfg>
 6011412:	62 e3       	mov	r14,r2
 6011414:	72 c8       	add	#-56,r2
 6011416:	53 2f       	mov.l	@(60,r2),r3
 6011418:	e2 4c       	mov	#76,r2
 601141a:	03 27       	mul.l	r2,r3
 601141c:	02 1a       	sts	macl,r2
 601141e:	31 2c       	add	r2,r1
 6011420:	71 01       	add	#1,r1
 6011422:	62 e3       	mov	r14,r2
 6011424:	72 f8       	add	#-8,r2
 6011426:	84 28       	mov.b	@(8,r2),r0
 6011428:	62 03       	mov	r0,r2
 601142a:	21 20       	mov.b	r2,@r1
	SCL_SetConfig(1 << (num + 2), &scfg[num]);
 601142c:	61 e3       	mov	r14,r1
 601142e:	71 c8       	add	#-56,r1
 6011430:	51 1f       	mov.l	@(60,r1),r1
 6011432:	71 02       	add	#2,r1
 6011434:	e2 01       	mov	#1,r2
 6011436:	64 23       	mov	r2,r4
 6011438:	d2 0e       	mov.l	6011474 <_scroll_charsize+0x7c>,r2	! 601df60 <___ashlsi3_r0>
 601143a:	60 13       	mov	r1,r0
 601143c:	42 0b       	jsr	@r2
 601143e:	00 09       	nop	
 6011440:	61 03       	mov	r0,r1
 6011442:	61 1d       	extu.w	r1,r1
 6011444:	63 13       	mov	r1,r3
 6011446:	61 e3       	mov	r14,r1
 6011448:	71 c8       	add	#-56,r1
 601144a:	52 1f       	mov.l	@(60,r1),r2
 601144c:	e1 4c       	mov	#76,r1
 601144e:	02 17       	mul.l	r1,r2
 6011450:	02 1a       	sts	macl,r2
 6011452:	d1 07       	mov.l	6011470 <_scroll_charsize+0x78>,r1	! 6021c48 <_scfg>
 6011454:	31 2c       	add	r2,r1
 6011456:	65 13       	mov	r1,r5
 6011458:	64 33       	mov	r3,r4
 601145a:	d1 07       	mov.l	6011478 <_scroll_charsize+0x80>,r1	! 6019ed8 <_SCL_SetConfig>
 601145c:	41 0b       	jsr	@r1
 601145e:	00 09       	nop	
}
 6011460:	00 09       	nop	
 6011462:	7e 08       	add	#8,r14
 6011464:	6f e3       	mov	r14,r15
 6011466:	4f 26       	lds.l	@r15+,pr
 6011468:	6e f6       	mov.l	@r15+,r14
 601146a:	00 0b       	rts	
 601146c:	00 09       	nop	
 601146e:	00 09       	nop	
 6011470:	06 02       	stc	sr,r6
 6011472:	1c 48       	mov.l	r4,@(32,r12)
 6011474:	06 01       	.word 0x0601
 6011476:	df 60       	mov.l	60115f8 <_sound_external_audio_enable+0x78>,r15	! 212161e3
 6011478:	06 01       	.word 0x0601
 601147a:	9e d8       	mov.w	601162e <_sound_external_audio_enable+0xae>,r14	! 511f

0601147c <_scroll_enable>:

void scroll_enable(int num, Uint8 state) {
 601147c:	2f e6       	mov.l	r14,@-r15
 601147e:	4f 22       	sts.l	pr,@-r15
 6011480:	7f f8       	add	#-8,r15
 6011482:	6e f3       	mov	r15,r14
 6011484:	61 e3       	mov	r14,r1
 6011486:	71 c8       	add	#-56,r1
 6011488:	11 4f       	mov.l	r4,@(60,r1)
 601148a:	62 53       	mov	r5,r2
 601148c:	61 e3       	mov	r14,r1
 601148e:	71 f8       	add	#-8,r1
 6011490:	60 23       	mov	r2,r0
 6011492:	80 18       	mov.b	r0,@(8,r1)
	scfg[num].dispenbl = state;
 6011494:	d1 16       	mov.l	60114f0 <_scroll_enable+0x74>,r1	! 6021c48 <_scfg>
 6011496:	62 e3       	mov	r14,r2
 6011498:	72 c8       	add	#-56,r2
 601149a:	53 2f       	mov.l	@(60,r2),r3
 601149c:	e2 4c       	mov	#76,r2
 601149e:	03 27       	mul.l	r2,r3
 60114a0:	02 1a       	sts	macl,r2
 60114a2:	31 2c       	add	r2,r1
 60114a4:	62 e3       	mov	r14,r2
 60114a6:	72 f8       	add	#-8,r2
 60114a8:	84 28       	mov.b	@(8,r2),r0
 60114aa:	62 03       	mov	r0,r2
 60114ac:	21 20       	mov.b	r2,@r1
	SCL_SetConfig(1 << (num + 2), &scfg[num]);
 60114ae:	61 e3       	mov	r14,r1
 60114b0:	71 c8       	add	#-56,r1
 60114b2:	51 1f       	mov.l	@(60,r1),r1
 60114b4:	71 02       	add	#2,r1
 60114b6:	e2 01       	mov	#1,r2
 60114b8:	64 23       	mov	r2,r4
 60114ba:	d2 0e       	mov.l	60114f4 <_scroll_enable+0x78>,r2	! 601df60 <___ashlsi3_r0>
 60114bc:	60 13       	mov	r1,r0
 60114be:	42 0b       	jsr	@r2
 60114c0:	00 09       	nop	
 60114c2:	61 03       	mov	r0,r1
 60114c4:	61 1d       	extu.w	r1,r1
 60114c6:	63 13       	mov	r1,r3
 60114c8:	61 e3       	mov	r14,r1
 60114ca:	71 c8       	add	#-56,r1
 60114cc:	52 1f       	mov.l	@(60,r1),r2
 60114ce:	e1 4c       	mov	#76,r1
 60114d0:	02 17       	mul.l	r1,r2
 60114d2:	02 1a       	sts	macl,r2
 60114d4:	d1 06       	mov.l	60114f0 <_scroll_enable+0x74>,r1	! 6021c48 <_scfg>
 60114d6:	31 2c       	add	r2,r1
 60114d8:	65 13       	mov	r1,r5
 60114da:	64 33       	mov	r3,r4
 60114dc:	d1 06       	mov.l	60114f8 <_scroll_enable+0x7c>,r1	! 6019ed8 <_SCL_SetConfig>
 60114de:	41 0b       	jsr	@r1
 60114e0:	00 09       	nop	
}
 60114e2:	00 09       	nop	
 60114e4:	7e 08       	add	#8,r14
 60114e6:	6f e3       	mov	r14,r15
 60114e8:	4f 26       	lds.l	@r15+,pr
 60114ea:	6e f6       	mov.l	@r15+,r14
 60114ec:	00 0b       	rts	
 60114ee:	00 09       	nop	
 60114f0:	06 02       	stc	sr,r6
 60114f2:	1c 48       	mov.l	r4,@(32,r12)
 60114f4:	06 01       	.word 0x0601
 60114f6:	df 60       	mov.l	6011678 <_sound_external_audio_enable+0xf8>,r15	! 7116622d
 60114f8:	06 01       	.word 0x0601
 60114fa:	9e d8       	mov.w	60116ae <_sound_external_audio_enable+0x12e>,r14	! 61e3

060114fc <_scroll_mapsize>:

void scroll_mapsize(int num, Uint8 size) {
 60114fc:	2f e6       	mov.l	r14,@-r15
 60114fe:	4f 22       	sts.l	pr,@-r15
 6011500:	7f f8       	add	#-8,r15
 6011502:	6e f3       	mov	r15,r14
 6011504:	61 e3       	mov	r14,r1
 6011506:	71 c8       	add	#-56,r1
 6011508:	11 4f       	mov.l	r4,@(60,r1)
 601150a:	62 53       	mov	r5,r2
 601150c:	61 e3       	mov	r14,r1
 601150e:	71 f8       	add	#-8,r1
 6011510:	60 23       	mov	r2,r0
 6011512:	80 18       	mov.b	r0,@(8,r1)
	scfg[num].pnamesize = size;
 6011514:	d1 17       	mov.l	6011574 <_scroll_mapsize+0x78>,r1	! 6021c48 <_scfg>
 6011516:	62 e3       	mov	r14,r2
 6011518:	72 c8       	add	#-56,r2
 601151a:	53 2f       	mov.l	@(60,r2),r3
 601151c:	e2 4c       	mov	#76,r2
 601151e:	03 27       	mul.l	r2,r3
 6011520:	02 1a       	sts	macl,r2
 6011522:	31 2c       	add	r2,r1
 6011524:	71 02       	add	#2,r1
 6011526:	62 e3       	mov	r14,r2
 6011528:	72 f8       	add	#-8,r2
 601152a:	84 28       	mov.b	@(8,r2),r0
 601152c:	62 03       	mov	r0,r2
 601152e:	21 20       	mov.b	r2,@r1
	SCL_SetConfig(1 << (num + 2), &scfg[num]);
 6011530:	61 e3       	mov	r14,r1
 6011532:	71 c8       	add	#-56,r1
 6011534:	51 1f       	mov.l	@(60,r1),r1
 6011536:	71 02       	add	#2,r1
 6011538:	e2 01       	mov	#1,r2
 601153a:	64 23       	mov	r2,r4
 601153c:	d2 0e       	mov.l	6011578 <_scroll_mapsize+0x7c>,r2	! 601df60 <___ashlsi3_r0>
 601153e:	60 13       	mov	r1,r0
 6011540:	42 0b       	jsr	@r2
 6011542:	00 09       	nop	
 6011544:	61 03       	mov	r0,r1
 6011546:	61 1d       	extu.w	r1,r1
 6011548:	63 13       	mov	r1,r3
 601154a:	61 e3       	mov	r14,r1
 601154c:	71 c8       	add	#-56,r1
 601154e:	52 1f       	mov.l	@(60,r1),r2
 6011550:	e1 4c       	mov	#76,r1
 6011552:	02 17       	mul.l	r1,r2
 6011554:	02 1a       	sts	macl,r2
 6011556:	d1 07       	mov.l	6011574 <_scroll_mapsize+0x78>,r1	! 6021c48 <_scfg>
 6011558:	31 2c       	add	r2,r1
 601155a:	65 13       	mov	r1,r5
 601155c:	64 33       	mov	r3,r4
 601155e:	d1 07       	mov.l	601157c <_scroll_mapsize+0x80>,r1	! 6019ed8 <_SCL_SetConfig>
 6011560:	41 0b       	jsr	@r1
 6011562:	00 09       	nop	
}
 6011564:	00 09       	nop	
 6011566:	7e 08       	add	#8,r14
 6011568:	6f e3       	mov	r14,r15
 601156a:	4f 26       	lds.l	@r15+,pr
 601156c:	6e f6       	mov.l	@r15+,r14
 601156e:	00 0b       	rts	
 6011570:	00 09       	nop	
 6011572:	00 09       	nop	
 6011574:	06 02       	stc	sr,r6
 6011576:	1c 48       	mov.l	r4,@(32,r12)
 6011578:	06 01       	.word 0x0601
 601157a:	df 60       	mov.l	60116fc <_sound_external_audio_enable+0x17c>,r15	! 61e371cc
 601157c:	06 01       	.word 0x0601
 601157e:	9e d8       	mov.w	6011732 <_sound_external_audio_enable+0x1b2>,r14	! 7114

06011580 <_sound_external_audio_enable>:
#define SATURN_COMMS (*((volatile DRIVER_COMMS *)(SNDRAM + 0x8000)))
#define ZMD_ADDR ((volatile Uint8 *)(&SATURN_COMMS + sizeof(DRIVER_COMMS)))
#define MASTER_VOLUME (*((volatile Uint16 *)(SNDRAM + 0x100400)))

#if DEVCART_LOAD == 0
static void sound_external_audio_enable(Uint8 vol_l, Uint8 vol_r) {
 6011580:	2f e6       	mov.l	r14,@-r15
 6011582:	7f f4       	add	#-12,r15
 6011584:	6e f3       	mov	r15,r14
 6011586:	62 43       	mov	r4,r2
 6011588:	63 53       	mov	r5,r3
 601158a:	61 e3       	mov	r14,r1
 601158c:	71 fc       	add	#-4,r1
 601158e:	60 23       	mov	r2,r0
 6011590:	80 18       	mov.b	r0,@(8,r1)
 6011592:	61 e3       	mov	r14,r1
 6011594:	71 fc       	add	#-4,r1
 6011596:	62 33       	mov	r3,r2
 6011598:	60 23       	mov	r2,r0
 601159a:	80 14       	mov.b	r0,@(4,r1)
    volatile Uint16 *slot_ptr;

    //max sound volume is 7
    if (vol_l > 7) {
 601159c:	61 e3       	mov	r14,r1
 601159e:	71 fc       	add	#-4,r1
 60115a0:	84 18       	mov.b	@(8,r1),r0
 60115a2:	61 03       	mov	r0,r1
 60115a4:	62 1c       	extu.b	r1,r2
 60115a6:	e1 07       	mov	#7,r1
 60115a8:	32 16       	cmp/hi	r1,r2
 60115aa:	8b 04       	bf	60115b6 <_sound_external_audio_enable+0x36>
        vol_l = 7;
 60115ac:	61 e3       	mov	r14,r1
 60115ae:	71 fc       	add	#-4,r1
 60115b0:	e2 07       	mov	#7,r2
 60115b2:	60 23       	mov	r2,r0
 60115b4:	80 18       	mov.b	r0,@(8,r1)
    }
    if (vol_r > 7) {
 60115b6:	61 e3       	mov	r14,r1
 60115b8:	71 fc       	add	#-4,r1
 60115ba:	84 14       	mov.b	@(4,r1),r0
 60115bc:	61 03       	mov	r0,r1
 60115be:	62 1c       	extu.b	r1,r2
 60115c0:	e1 07       	mov	#7,r1
 60115c2:	32 16       	cmp/hi	r1,r2
 60115c4:	8b 04       	bf	60115d0 <_sound_external_audio_enable+0x50>
        vol_r = 7;
 60115c6:	61 e3       	mov	r14,r1
 60115c8:	71 fc       	add	#-4,r1
 60115ca:	e2 07       	mov	#7,r2
 60115cc:	60 23       	mov	r2,r0
 60115ce:	80 14       	mov.b	r0,@(4,r1)
    }

    // Setup SCSP Slot 16 and Slot 17 for playing
    slot_ptr = (volatile Uint16 *)(0x25B00000 + (0x20 * 16));
 60115d0:	61 e3       	mov	r14,r1
 60115d2:	71 cc       	add	#-52,r1
 60115d4:	d2 73       	mov.l	60117a4 <_sound_external_audio_enable+0x224>,r2	! 25b00200
 60115d6:	11 2f       	mov.l	r2,@(60,r1)
    slot_ptr[0] = 0x1000;
 60115d8:	61 e3       	mov	r14,r1
 60115da:	71 cc       	add	#-52,r1
 60115dc:	51 1f       	mov.l	@(60,r1),r1
 60115de:	92 de       	mov.w	601179e <_sound_external_audio_enable+0x21e>,r2	! 1000
 60115e0:	21 21       	mov.w	r2,@r1
    slot_ptr[1] = 0x0000; 
 60115e2:	61 e3       	mov	r14,r1
 60115e4:	71 cc       	add	#-52,r1
 60115e6:	51 1f       	mov.l	@(60,r1),r1
 60115e8:	71 02       	add	#2,r1
 60115ea:	e2 00       	mov	#0,r2
 60115ec:	21 21       	mov.w	r2,@r1
    slot_ptr[2] = 0x0000; 
 60115ee:	61 e3       	mov	r14,r1
 60115f0:	71 cc       	add	#-52,r1
 60115f2:	51 1f       	mov.l	@(60,r1),r1
 60115f4:	71 04       	add	#4,r1
 60115f6:	e2 00       	mov	#0,r2
 60115f8:	21 21       	mov.w	r2,@r1
    slot_ptr[3] = 0x0000; 
 60115fa:	61 e3       	mov	r14,r1
 60115fc:	71 cc       	add	#-52,r1
 60115fe:	51 1f       	mov.l	@(60,r1),r1
 6011600:	71 06       	add	#6,r1
 6011602:	e2 00       	mov	#0,r2
 6011604:	21 21       	mov.w	r2,@r1
    slot_ptr[4] = 0x0000; 
 6011606:	61 e3       	mov	r14,r1
 6011608:	71 cc       	add	#-52,r1
 601160a:	51 1f       	mov.l	@(60,r1),r1
 601160c:	71 08       	add	#8,r1
 601160e:	e2 00       	mov	#0,r2
 6011610:	21 21       	mov.w	r2,@r1
    slot_ptr[5] = 0x0000; 
 6011612:	61 e3       	mov	r14,r1
 6011614:	71 cc       	add	#-52,r1
 6011616:	51 1f       	mov.l	@(60,r1),r1
 6011618:	71 0a       	add	#10,r1
 601161a:	e2 00       	mov	#0,r2
 601161c:	21 21       	mov.w	r2,@r1
    slot_ptr[6] = 0x00FF; 
 601161e:	61 e3       	mov	r14,r1
 6011620:	71 cc       	add	#-52,r1
 6011622:	51 1f       	mov.l	@(60,r1),r1
 6011624:	71 0c       	add	#12,r1
 6011626:	92 bb       	mov.w	60117a0 <_sound_external_audio_enable+0x220>,r2	! ff
 6011628:	21 21       	mov.w	r2,@r1
    slot_ptr[7] = 0x0000; 
 601162a:	61 e3       	mov	r14,r1
 601162c:	71 cc       	add	#-52,r1
 601162e:	51 1f       	mov.l	@(60,r1),r1
 6011630:	71 0e       	add	#14,r1
 6011632:	e2 00       	mov	#0,r2
 6011634:	21 21       	mov.w	r2,@r1
    slot_ptr[8] = 0x0000; 
 6011636:	61 e3       	mov	r14,r1
 6011638:	71 cc       	add	#-52,r1
 601163a:	51 1f       	mov.l	@(60,r1),r1
 601163c:	71 10       	add	#16,r1
 601163e:	e2 00       	mov	#0,r2
 6011640:	21 21       	mov.w	r2,@r1
    slot_ptr[9] = 0x0000; 
 6011642:	61 e3       	mov	r14,r1
 6011644:	71 cc       	add	#-52,r1
 6011646:	51 1f       	mov.l	@(60,r1),r1
 6011648:	71 12       	add	#18,r1
 601164a:	e2 00       	mov	#0,r2
 601164c:	21 21       	mov.w	r2,@r1
    slot_ptr[10] = 0x0000; 
 601164e:	61 e3       	mov	r14,r1
 6011650:	71 cc       	add	#-52,r1
 6011652:	51 1f       	mov.l	@(60,r1),r1
 6011654:	71 14       	add	#20,r1
 6011656:	e2 00       	mov	#0,r2
 6011658:	21 21       	mov.w	r2,@r1
    slot_ptr[11] = 0x001F | (vol_l << 5);
 601165a:	61 e3       	mov	r14,r1
 601165c:	71 fc       	add	#-4,r1
 601165e:	84 18       	mov.b	@(8,r1),r0
 6011660:	61 03       	mov	r0,r1
 6011662:	61 1c       	extu.b	r1,r1
 6011664:	41 08       	shll2	r1
 6011666:	31 1c       	add	r1,r1
 6011668:	41 08       	shll2	r1
 601166a:	61 1f       	exts.w	r1,r1
 601166c:	e2 1f       	mov	#31,r2
 601166e:	21 2b       	or	r2,r1
 6011670:	62 1f       	exts.w	r1,r2
 6011672:	61 e3       	mov	r14,r1
 6011674:	71 cc       	add	#-52,r1
 6011676:	51 1f       	mov.l	@(60,r1),r1
 6011678:	71 16       	add	#22,r1
 601167a:	62 2d       	extu.w	r2,r2
 601167c:	21 21       	mov.w	r2,@r1
    slot_ptr[12] = 0x0000; 
 601167e:	61 e3       	mov	r14,r1
 6011680:	71 cc       	add	#-52,r1
 6011682:	51 1f       	mov.l	@(60,r1),r1
 6011684:	71 18       	add	#24,r1
 6011686:	e2 00       	mov	#0,r2
 6011688:	21 21       	mov.w	r2,@r1
    slot_ptr[13] = 0x0000; 
 601168a:	61 e3       	mov	r14,r1
 601168c:	71 cc       	add	#-52,r1
 601168e:	51 1f       	mov.l	@(60,r1),r1
 6011690:	71 1a       	add	#26,r1
 6011692:	e2 00       	mov	#0,r2
 6011694:	21 21       	mov.w	r2,@r1
    slot_ptr[14] = 0x0000; 
 6011696:	61 e3       	mov	r14,r1
 6011698:	71 cc       	add	#-52,r1
 601169a:	51 1f       	mov.l	@(60,r1),r1
 601169c:	71 1c       	add	#28,r1
 601169e:	e2 00       	mov	#0,r2
 60116a0:	21 21       	mov.w	r2,@r1
    slot_ptr[15] = 0x0000; 
 60116a2:	61 e3       	mov	r14,r1
 60116a4:	71 cc       	add	#-52,r1
 60116a6:	51 1f       	mov.l	@(60,r1),r1
 60116a8:	71 1e       	add	#30,r1
 60116aa:	e2 00       	mov	#0,r2
 60116ac:	21 21       	mov.w	r2,@r1

    slot_ptr = (volatile Uint16 *)(0x25B00000 + (0x20 * 17));
 60116ae:	61 e3       	mov	r14,r1
 60116b0:	71 cc       	add	#-52,r1
 60116b2:	d2 3d       	mov.l	60117a8 <_sound_external_audio_enable+0x228>,r2	! 25b00220
 60116b4:	11 2f       	mov.l	r2,@(60,r1)
    slot_ptr[0] = 0x1000;
 60116b6:	61 e3       	mov	r14,r1
 60116b8:	71 cc       	add	#-52,r1
 60116ba:	51 1f       	mov.l	@(60,r1),r1
 60116bc:	92 6f       	mov.w	601179e <_sound_external_audio_enable+0x21e>,r2	! 1000
 60116be:	21 21       	mov.w	r2,@r1
    slot_ptr[1] = 0x0000; 
 60116c0:	61 e3       	mov	r14,r1
 60116c2:	71 cc       	add	#-52,r1
 60116c4:	51 1f       	mov.l	@(60,r1),r1
 60116c6:	71 02       	add	#2,r1
 60116c8:	e2 00       	mov	#0,r2
 60116ca:	21 21       	mov.w	r2,@r1
    slot_ptr[2] = 0x0000; 
 60116cc:	61 e3       	mov	r14,r1
 60116ce:	71 cc       	add	#-52,r1
 60116d0:	51 1f       	mov.l	@(60,r1),r1
 60116d2:	71 04       	add	#4,r1
 60116d4:	e2 00       	mov	#0,r2
 60116d6:	21 21       	mov.w	r2,@r1
    slot_ptr[3] = 0x0000; 
 60116d8:	61 e3       	mov	r14,r1
 60116da:	71 cc       	add	#-52,r1
 60116dc:	51 1f       	mov.l	@(60,r1),r1
 60116de:	71 06       	add	#6,r1
 60116e0:	e2 00       	mov	#0,r2
 60116e2:	21 21       	mov.w	r2,@r1
    slot_ptr[4] = 0x0000; 
 60116e4:	61 e3       	mov	r14,r1
 60116e6:	71 cc       	add	#-52,r1
 60116e8:	51 1f       	mov.l	@(60,r1),r1
 60116ea:	71 08       	add	#8,r1
 60116ec:	e2 00       	mov	#0,r2
 60116ee:	21 21       	mov.w	r2,@r1
    slot_ptr[5] = 0x0000; 
 60116f0:	61 e3       	mov	r14,r1
 60116f2:	71 cc       	add	#-52,r1
 60116f4:	51 1f       	mov.l	@(60,r1),r1
 60116f6:	71 0a       	add	#10,r1
 60116f8:	e2 00       	mov	#0,r2
 60116fa:	21 21       	mov.w	r2,@r1
    slot_ptr[6] = 0x00FF; 
 60116fc:	61 e3       	mov	r14,r1
 60116fe:	71 cc       	add	#-52,r1
 6011700:	51 1f       	mov.l	@(60,r1),r1
 6011702:	71 0c       	add	#12,r1
 6011704:	92 4c       	mov.w	60117a0 <_sound_external_audio_enable+0x220>,r2	! ff
 6011706:	21 21       	mov.w	r2,@r1
    slot_ptr[7] = 0x0000; 
 6011708:	61 e3       	mov	r14,r1
 601170a:	71 cc       	add	#-52,r1
 601170c:	51 1f       	mov.l	@(60,r1),r1
 601170e:	71 0e       	add	#14,r1
 6011710:	e2 00       	mov	#0,r2
 6011712:	21 21       	mov.w	r2,@r1
    slot_ptr[8] = 0x0000; 
 6011714:	61 e3       	mov	r14,r1
 6011716:	71 cc       	add	#-52,r1
 6011718:	51 1f       	mov.l	@(60,r1),r1
 601171a:	71 10       	add	#16,r1
 601171c:	e2 00       	mov	#0,r2
 601171e:	21 21       	mov.w	r2,@r1
    slot_ptr[9] = 0x0000; 
 6011720:	61 e3       	mov	r14,r1
 6011722:	71 cc       	add	#-52,r1
 6011724:	51 1f       	mov.l	@(60,r1),r1
 6011726:	71 12       	add	#18,r1
 6011728:	e2 00       	mov	#0,r2
 601172a:	21 21       	mov.w	r2,@r1
    slot_ptr[10] = 0x0000; 
 601172c:	61 e3       	mov	r14,r1
 601172e:	71 cc       	add	#-52,r1
 6011730:	51 1f       	mov.l	@(60,r1),r1
 6011732:	71 14       	add	#20,r1
 6011734:	e2 00       	mov	#0,r2
 6011736:	21 21       	mov.w	r2,@r1
    slot_ptr[11] = 0x000F | (vol_r << 5);
 6011738:	61 e3       	mov	r14,r1
 601173a:	71 fc       	add	#-4,r1
 601173c:	84 14       	mov.b	@(4,r1),r0
 601173e:	61 03       	mov	r0,r1
 6011740:	61 1c       	extu.b	r1,r1
 6011742:	41 08       	shll2	r1
 6011744:	31 1c       	add	r1,r1
 6011746:	41 08       	shll2	r1
 6011748:	61 1f       	exts.w	r1,r1
 601174a:	e2 0f       	mov	#15,r2
 601174c:	21 2b       	or	r2,r1
 601174e:	62 1f       	exts.w	r1,r2
 6011750:	61 e3       	mov	r14,r1
 6011752:	71 cc       	add	#-52,r1
 6011754:	51 1f       	mov.l	@(60,r1),r1
 6011756:	71 16       	add	#22,r1
 6011758:	62 2d       	extu.w	r2,r2
 601175a:	21 21       	mov.w	r2,@r1
    slot_ptr[12] = 0x0000; 
 601175c:	61 e3       	mov	r14,r1
 601175e:	71 cc       	add	#-52,r1
 6011760:	51 1f       	mov.l	@(60,r1),r1
 6011762:	71 18       	add	#24,r1
 6011764:	e2 00       	mov	#0,r2
 6011766:	21 21       	mov.w	r2,@r1
    slot_ptr[13] = 0x0000; 
 6011768:	61 e3       	mov	r14,r1
 601176a:	71 cc       	add	#-52,r1
 601176c:	51 1f       	mov.l	@(60,r1),r1
 601176e:	71 1a       	add	#26,r1
 6011770:	e2 00       	mov	#0,r2
 6011772:	21 21       	mov.w	r2,@r1
    slot_ptr[14] = 0x0000; 
 6011774:	61 e3       	mov	r14,r1
 6011776:	71 cc       	add	#-52,r1
 6011778:	51 1f       	mov.l	@(60,r1),r1
 601177a:	71 1c       	add	#28,r1
 601177c:	e2 00       	mov	#0,r2
 601177e:	21 21       	mov.w	r2,@r1
    slot_ptr[15] = 0x0000;
 6011780:	61 e3       	mov	r14,r1
 6011782:	71 cc       	add	#-52,r1
 6011784:	51 1f       	mov.l	@(60,r1),r1
 6011786:	71 1e       	add	#30,r1
 6011788:	e2 00       	mov	#0,r2
 601178a:	21 21       	mov.w	r2,@r1

    *((volatile Uint16 *)(0x25B00400)) = 0x020F;
 601178c:	d1 07       	mov.l	60117ac <_sound_external_audio_enable+0x22c>,r1	! 25b00400
 601178e:	92 08       	mov.w	60117a2 <_sound_external_audio_enable+0x222>,r2	! 20f
 6011790:	21 21       	mov.w	r2,@r1
}
 6011792:	00 09       	nop	
 6011794:	7e 0c       	add	#12,r14
 6011796:	6f e3       	mov	r14,r15
 6011798:	6e f6       	mov.l	@r15+,r14
 601179a:	00 0b       	rts	
 601179c:	00 09       	nop	
 601179e:	10 00       	mov.l	r0,@(0,r0)
 60117a0:	00 ff       	mac.l	@r15+,@r0+
 60117a2:	02 0f       	mac.l	@r0+,@r2+
 60117a4:	25 b0       	mov.b	r11,@r5
 60117a6:	02 00       	.word 0x0200
 60117a8:	25 b0       	mov.b	r11,@r5
 60117aa:	02 20       	.word 0x0220
 60117ac:	25 b0       	mov.b	r11,@r5
 60117ae:	04 00       	.word 0x0400

060117b0 <_sound_init>:
#endif

//must be called after cd_init
void sound_init() {
 60117b0:	2f e6       	mov.l	r14,@-r15
 60117b2:	4f 22       	sts.l	pr,@-r15
 60117b4:	6e f3       	mov	r15,r14
    if (!DEVCART_LOAD) {
        sound_external_audio_enable(5, 5);
 60117b6:	e5 05       	mov	#5,r5
 60117b8:	e4 05       	mov	#5,r4
 60117ba:	d1 04       	mov.l	60117cc <_sound_init+0x1c>,r1	! 6011580 <_sound_external_audio_enable>
 60117bc:	41 0b       	jsr	@r1
 60117be:	00 09       	nop	
    }
}
 60117c0:	00 09       	nop	
 60117c2:	6f e3       	mov	r14,r15
 60117c4:	4f 26       	lds.l	@r15+,pr
 60117c6:	6e f6       	mov.l	@r15+,r14
 60117c8:	00 0b       	rts	
 60117ca:	00 09       	nop	
 60117cc:	06 01       	.word 0x0601
 60117ce:	15 80       	mov.l	r8,@(0,r5)

060117d0 <_sound_cdda>:


void sound_cdda(int track, int loop) {
 60117d0:	2f e6       	mov.l	r14,@-r15
 60117d2:	4f 22       	sts.l	pr,@-r15
 60117d4:	7f e4       	add	#-28,r15
 60117d6:	6e f3       	mov	r15,r14
 60117d8:	61 e3       	mov	r14,r1
 60117da:	71 dc       	add	#-36,r1
 60117dc:	11 4a       	mov.l	r4,@(40,r1)
 60117de:	61 e3       	mov	r14,r1
 60117e0:	71 dc       	add	#-36,r1
 60117e2:	11 59       	mov.l	r5,@(36,r1)
    if (DEVCART_LOAD) {
        return;
    }
    CdcPly ply;
    CDC_PLY_STYPE(&ply) = CDC_PTYPE_TNO; //track number
 60117e4:	61 e3       	mov	r14,r1
 60117e6:	71 08       	add	#8,r1
 60117e8:	e2 02       	mov	#2,r2
 60117ea:	21 22       	mov.l	r2,@r1
	CDC_PLY_STNO(&ply)  = track;
 60117ec:	61 e3       	mov	r14,r1
 60117ee:	71 dc       	add	#-36,r1
 60117f0:	51 1a       	mov.l	@(40,r1),r1
 60117f2:	62 1c       	extu.b	r1,r2
 60117f4:	61 e3       	mov	r14,r1
 60117f6:	71 08       	add	#8,r1
 60117f8:	60 23       	mov	r2,r0
 60117fa:	80 14       	mov.b	r0,@(4,r1)
	CDC_PLY_SIDX(&ply) = 1;
 60117fc:	61 e3       	mov	r14,r1
 60117fe:	71 08       	add	#8,r1
 6011800:	e2 01       	mov	#1,r2
 6011802:	60 23       	mov	r2,r0
 6011804:	80 15       	mov.b	r0,@(5,r1)
	CDC_PLY_ETYPE(&ply) = CDC_PTYPE_TNO;
 6011806:	61 e3       	mov	r14,r1
 6011808:	71 08       	add	#8,r1
 601180a:	e2 02       	mov	#2,r2
 601180c:	11 22       	mov.l	r2,@(8,r1)
	CDC_PLY_ETNO(&ply)  = track;
 601180e:	61 e3       	mov	r14,r1
 6011810:	71 dc       	add	#-36,r1
 6011812:	51 1a       	mov.l	@(40,r1),r1
 6011814:	62 1c       	extu.b	r1,r2
 6011816:	61 e3       	mov	r14,r1
 6011818:	71 08       	add	#8,r1
 601181a:	60 23       	mov	r2,r0
 601181c:	80 1c       	mov.b	r0,@(12,r1)
	CDC_PLY_EIDX(&ply) = 99;
 601181e:	61 e3       	mov	r14,r1
 6011820:	71 08       	add	#8,r1
 6011822:	e2 63       	mov	#99,r2
 6011824:	60 23       	mov	r2,r0
 6011826:	80 1d       	mov.b	r0,@(13,r1)
    if (loop) {
 6011828:	61 e3       	mov	r14,r1
 601182a:	71 dc       	add	#-36,r1
 601182c:	51 19       	mov.l	@(36,r1),r1
 601182e:	21 18       	tst	r1,r1
 6011830:	89 06       	bt	6011840 <_sound_cdda+0x70>
        CDC_PLY_PMODE(&ply) = CDC_PM_DFL | 0xf; //0xf = infinite repetitions
 6011832:	61 e3       	mov	r14,r1
 6011834:	71 08       	add	#8,r1
 6011836:	71 10       	add	#16,r1
 6011838:	e2 0f       	mov	#15,r2
 601183a:	21 20       	mov.b	r2,@r1
 601183c:	a0 05       	bra	601184a <_sound_cdda+0x7a>
 601183e:	00 09       	nop	
    }
    else {
        CDC_PLY_PMODE(&ply) = CDC_PM_DFL;
 6011840:	61 e3       	mov	r14,r1
 6011842:	71 08       	add	#8,r1
 6011844:	71 10       	add	#16,r1
 6011846:	e2 00       	mov	#0,r2
 6011848:	21 20       	mov.b	r2,@r1
    }
	
    CDC_CdPlay(&ply);
 601184a:	61 e3       	mov	r14,r1
 601184c:	71 08       	add	#8,r1
 601184e:	64 13       	mov	r1,r4
 6011850:	d1 04       	mov.l	6011864 <_sound_cdda+0x94>,r1	! 6012acc <_CDC_CdPlay>
 6011852:	41 0b       	jsr	@r1
 6011854:	00 09       	nop	
}
 6011856:	7e 1c       	add	#28,r14
 6011858:	6f e3       	mov	r14,r15
 601185a:	4f 26       	lds.l	@r15+,pr
 601185c:	6e f6       	mov.l	@r15+,r14
 601185e:	00 0b       	rts	
 6011860:	00 09       	nop	
 6011862:	00 09       	nop	
 6011864:	06 01       	.word 0x0601
 6011866:	2a cc       	cmp/str	r12,r10

06011868 <_sound_play>:

void sound_play(short num) {
 6011868:	2f e6       	mov.l	r14,@-r15
 601186a:	7f fc       	add	#-4,r15
 601186c:	6e f3       	mov	r15,r14
 601186e:	62 43       	mov	r4,r2
 6011870:	61 e3       	mov	r14,r1
 6011872:	71 e4       	add	#-28,r1
 6011874:	60 23       	mov	r2,r0
 6011876:	81 1e       	mov.w	r0,@(28,r1)
    return;
 6011878:	00 09       	nop	
    // pcm_play(num, PCM_SEMI, 6);
}
 601187a:	7e 04       	add	#4,r14
 601187c:	6f e3       	mov	r14,r15
 601187e:	6e f6       	mov.l	@r15+,r14
 6011880:	00 0b       	rts	
 6011882:	00 09       	nop	

06011884 <_Sprite_Init>:
#define ENDCODE_DISABLE (1 << 7)

static Uint8 spriteBuf[65536];
static Uint16 red[64];

void Sprite_Init() {
 6011884:	2f e6       	mov.l	r14,@-r15
 6011886:	4f 22       	sts.l	pr,@-r15
 6011888:	7f f8       	add	#-8,r15
 601188a:	6e f3       	mov	r15,r14
	Sprite_DeleteAll();
 601188c:	d1 2b       	mov.l	601193c <_Sprite_Init+0xb8>,r1	! 60125b4 <_Sprite_DeleteAll>
 601188e:	41 0b       	jsr	@r1
 6011890:	00 09       	nop	

	SCL_Vdp2Init();
 6011892:	d1 2b       	mov.l	6011940 <_Sprite_Init+0xbc>,r1	! 60194d4 <_SCL_Vdp2Init>
 6011894:	41 0b       	jsr	@r1
 6011896:	00 09       	nop	
	SPR_2Initial(&work2D);
 6011898:	d1 2a       	mov.l	6011944 <_Sprite_Init+0xc0>,r1	! 601f0b0 <_work2D>
 601189a:	64 13       	mov	r1,r4
 601189c:	d1 2a       	mov.l	6011948 <_Sprite_Init+0xc4>,r1	! 6018a5c <_SPR_2Initial>
 601189e:	41 0b       	jsr	@r1
 60118a0:	00 09       	nop	
	SPR_2SetTvMode(SPR_TV_NORMAL, SPR_TV_320X224, OFF);
 60118a2:	e6 00       	mov	#0,r6
 60118a4:	e5 00       	mov	#0,r5
 60118a6:	e4 00       	mov	#0,r4
 60118a8:	d1 28       	mov.l	601194c <_Sprite_Init+0xc8>,r1	! 601872c <_SPR_2SetTvMode>
 60118aa:	41 0b       	jsr	@r1
 60118ac:	00 09       	nop	
	SCL_SetColRamMode(SCL_CRM24_1024);
 60118ae:	e4 02       	mov	#2,r4
 60118b0:	d1 27       	mov.l	6011950 <_Sprite_Init+0xcc>,r1	! 6019984 <_SCL_SetColRamMode>
 60118b2:	41 0b       	jsr	@r1
 60118b4:	00 09       	nop	
    SCL_SetSpriteMode(SCL_TYPE5, SCL_MIX, SCL_SP_WINDOW);
 60118b6:	e6 01       	mov	#1,r6
 60118b8:	e5 01       	mov	#1,r5
 60118ba:	e4 05       	mov	#5,r4
 60118bc:	d1 25       	mov.l	6011954 <_Sprite_Init+0xd0>,r1	! 601c544 <_SCL_SetSpriteMode>
 60118be:	41 0b       	jsr	@r1
 60118c0:	00 09       	nop	
	SCL_AllocColRam(SCL_SPR, 256, OFF);
 60118c2:	92 38       	mov.w	6011936 <_Sprite_Init+0xb2>,r2	! 100
 60118c4:	91 37       	mov.w	6011936 <_Sprite_Init+0xb2>,r1	! 100
 60118c6:	e6 00       	mov	#0,r6
 60118c8:	65 23       	mov	r2,r5
 60118ca:	64 13       	mov	r1,r4
 60118cc:	d1 22       	mov.l	6011958 <_Sprite_Init+0xd4>,r1	! 601c650 <_SCL_AllocColRam>
 60118ce:	41 0b       	jsr	@r1
 60118d0:	00 09       	nop	

	SetVblank(); //setup vblank routine
 60118d2:	d1 22       	mov.l	601195c <_Sprite_Init+0xd8>,r1	! 6010060 <_SetVblank>
 60118d4:	41 0b       	jsr	@r1
 60118d6:	00 09       	nop	
	set_imask(0);
 60118d8:	02 02       	stc	sr,r2
 60118da:	61 e3       	mov	r14,r1
 60118dc:	71 c8       	add	#-56,r1
 60118de:	11 2f       	mov.l	r2,@(60,r1)
 60118e0:	61 e3       	mov	r14,r1
 60118e2:	71 c8       	add	#-56,r1
 60118e4:	52 1f       	mov.l	@(60,r1),r2
 60118e6:	61 e3       	mov	r14,r1
 60118e8:	71 c8       	add	#-56,r1
 60118ea:	11 2e       	mov.l	r2,@(56,r1)
 60118ec:	61 e3       	mov	r14,r1
 60118ee:	71 c8       	add	#-56,r1
 60118f0:	62 e3       	mov	r14,r2
 60118f2:	72 c8       	add	#-56,r2
 60118f4:	53 2e       	mov.l	@(56,r2),r3
 60118f6:	92 1f       	mov.w	6011938 <_Sprite_Init+0xb4>,r2	! ff0f
 60118f8:	22 39       	and	r3,r2
 60118fa:	11 2e       	mov.l	r2,@(56,r1)
 60118fc:	61 e3       	mov	r14,r1
 60118fe:	71 c8       	add	#-56,r1
 6011900:	62 e3       	mov	r14,r2
 6011902:	72 c8       	add	#-56,r2
 6011904:	52 2e       	mov.l	@(56,r2),r2
 6011906:	11 2e       	mov.l	r2,@(56,r1)
 6011908:	61 e3       	mov	r14,r1
 601190a:	71 c8       	add	#-56,r1
 601190c:	51 1e       	mov.l	@(56,r1),r1
 601190e:	41 0e       	ldc	r1,sr
	
	SPR_2FrameChgIntr(1); //wait until next frame to set color mode
 6011910:	e4 01       	mov	#1,r4
 6011912:	d1 13       	mov.l	6011960 <_Sprite_Init+0xdc>,r1	! 601873c <_SPR_2FrameChgIntr>
 6011914:	41 0b       	jsr	@r1
 6011916:	00 09       	nop	
	SPR_2FrameEraseData(RGB16_COLOR(0, 0, 0)); //zero out frame
 6011918:	d1 12       	mov.l	6011964 <_Sprite_Init+0xe0>,r1	! 8000
 601191a:	64 13       	mov	r1,r4
 601191c:	d1 12       	mov.l	6011968 <_Sprite_Init+0xe4>,r1	! 6018750 <_SPR_2FrameEraseData>
 601191e:	41 0b       	jsr	@r1
 6011920:	00 09       	nop	
	SCL_DisplayFrame();
 6011922:	d1 12       	mov.l	601196c <_Sprite_Init+0xe8>,r1	! 601c358 <_SCL_DisplayFrame>
 6011924:	41 0b       	jsr	@r1
 6011926:	00 09       	nop	
}
 6011928:	00 09       	nop	
 601192a:	7e 08       	add	#8,r14
 601192c:	6f e3       	mov	r14,r15
 601192e:	4f 26       	lds.l	@r15+,pr
 6011930:	6e f6       	mov.l	@r15+,r14
 6011932:	00 0b       	rts	
 6011934:	00 09       	nop	
 6011936:	01 00       	.word 0x0100
 6011938:	ff 0f       	.word 0xff0f
 601193a:	00 09       	nop	
 601193c:	06 01       	.word 0x0601
 601193e:	25 b4       	mov.b	r11,@-r5
 6011940:	06 01       	.word 0x0601
 6011942:	94 d4       	mov.w	6011aee <_Sprite_LoadPal+0x14e>,r4	! 511e
 6011944:	06 01       	.word 0x0601
 6011946:	f0 b0       	.word 0xf0b0
 6011948:	06 01       	.word 0x0601
 601194a:	8a 5c       	.word 0x8a5c
 601194c:	06 01       	.word 0x0601
 601194e:	87 2c       	.word 0x872c
 6011950:	06 01       	.word 0x0601
 6011952:	99 84       	mov.w	6011a5e <_Sprite_LoadPal+0xbe>,r9	! 100
 6011954:	06 01       	.word 0x0601
 6011956:	c5 44       	mov.w	@(136,gbr),r0
 6011958:	06 01       	.word 0x0601
 601195a:	c6 50       	mov.l	@(320,gbr),r0
 601195c:	06 01       	.word 0x0601
 601195e:	00 60       	.word 0x0060
 6011960:	06 01       	.word 0x0601
 6011962:	87 3c       	.word 0x873c
 6011964:	00 00       	.word 0x0000
 6011966:	80 00       	mov.b	r0,@(0,r0)
 6011968:	06 01       	.word 0x0601
 601196a:	87 50       	.word 0x8750
 601196c:	06 01       	.word 0x0601
 601196e:	c3 58       	trapa	#88

06011970 <_Sprite_Clear>:

void Sprite_Clear() {
 6011970:	2f e6       	mov.l	r14,@-r15
 6011972:	4f 22       	sts.l	pr,@-r15
 6011974:	6e f3       	mov	r15,r14
	tileCount = 0;
 6011976:	d1 07       	mov.l	6011994 <_Sprite_Clear+0x24>,r1	! 6021d7c <_tileCount>
 6011978:	e2 00       	mov	#0,r2
 601197a:	21 22       	mov.l	r2,@r1
	palCnt = 0;
 601197c:	d1 06       	mov.l	6011998 <_Sprite_Clear+0x28>,r1	! 6021d80 <_palCnt>
 601197e:	e2 00       	mov	#0,r2
 6011980:	21 22       	mov.l	r2,@r1
	SPR_2ClrAllChar();
 6011982:	d1 06       	mov.l	601199c <_Sprite_Clear+0x2c>,r1	! 6018a10 <_SPR_2ClrAllChar>
 6011984:	41 0b       	jsr	@r1
 6011986:	00 09       	nop	
}
 6011988:	00 09       	nop	
 601198a:	6f e3       	mov	r14,r15
 601198c:	4f 26       	lds.l	@r15+,pr
 601198e:	6e f6       	mov.l	@r15+,r14
 6011990:	00 0b       	rts	
 6011992:	00 09       	nop	
 6011994:	06 02       	stc	sr,r6
 6011996:	1d 7c       	mov.l	r7,@(48,r13)
 6011998:	06 02       	stc	sr,r6
 601199a:	1d 80       	mov.l	r8,@(0,r13)
 601199c:	06 01       	.word 0x0601
 601199e:	8a 10       	.word 0x8a10

060119a0 <_Sprite_LoadPal>:

static int Sprite_LoadPal(Uint8 *buffer, int *count) {
 60119a0:	2f e6       	mov.l	r14,@-r15
 60119a2:	4f 22       	sts.l	pr,@-r15
 60119a4:	7f d0       	add	#-48,r15
 60119a6:	6e f3       	mov	r15,r14
 60119a8:	61 e3       	mov	r14,r1
 60119aa:	71 f0       	add	#-16,r1
 60119ac:	11 47       	mov.l	r4,@(28,r1)
 60119ae:	61 e3       	mov	r14,r1
 60119b0:	71 f0       	add	#-16,r1
 60119b2:	11 56       	mov.l	r5,@(24,r1)
	Sint32 numPals;
	memcpy(&numPals, buffer, sizeof(numPals));
 60119b4:	61 e3       	mov	r14,r1
 60119b6:	71 f0       	add	#-16,r1
 60119b8:	62 e3       	mov	r14,r2
 60119ba:	72 20       	add	#32,r2
 60119bc:	e6 04       	mov	#4,r6
 60119be:	55 17       	mov.l	@(28,r1),r5
 60119c0:	64 23       	mov	r2,r4
 60119c2:	d1 27       	mov.l	6011a60 <_Sprite_LoadPal+0xc0>,r1	! 601e9e8 <_memcpy>
 60119c4:	41 0b       	jsr	@r1
 60119c6:	00 09       	nop	
	buffer += sizeof(numPals);
 60119c8:	61 e3       	mov	r14,r1
 60119ca:	71 f0       	add	#-16,r1
 60119cc:	62 e3       	mov	r14,r2
 60119ce:	72 f0       	add	#-16,r2
 60119d0:	52 27       	mov.l	@(28,r2),r2
 60119d2:	72 04       	add	#4,r2
 60119d4:	11 27       	mov.l	r2,@(28,r1)

	// load all the palettes
	for (int i = 0; i < numPals; i++) {
 60119d6:	61 e3       	mov	r14,r1
 60119d8:	71 f0       	add	#-16,r1
 60119da:	e2 00       	mov	#0,r2
 60119dc:	11 2f       	mov.l	r2,@(60,r1)
 60119de:	a0 1f       	bra	6011a20 <_Sprite_LoadPal+0x80>
 60119e0:	00 09       	nop	
		SCL_SetColRam(SCL_SPR, i + palCnt, 16, buffer);
 60119e2:	d1 20       	mov.l	6011a64 <_Sprite_LoadPal+0xc4>,r1	! 6021d80 <_palCnt>
 60119e4:	62 12       	mov.l	@r1,r2
 60119e6:	61 e3       	mov	r14,r1
 60119e8:	71 f0       	add	#-16,r1
 60119ea:	51 1f       	mov.l	@(60,r1),r1
 60119ec:	31 2c       	add	r2,r1
 60119ee:	63 13       	mov	r1,r3
 60119f0:	61 e3       	mov	r14,r1
 60119f2:	71 f0       	add	#-16,r1
 60119f4:	92 33       	mov.w	6011a5e <_Sprite_LoadPal+0xbe>,r2	! 100
 60119f6:	57 17       	mov.l	@(28,r1),r7
 60119f8:	e6 10       	mov	#16,r6
 60119fa:	65 33       	mov	r3,r5
 60119fc:	64 23       	mov	r2,r4
 60119fe:	d1 1a       	mov.l	6011a68 <_Sprite_LoadPal+0xc8>,r1	! 601c598 <_SCL_SetColRam>
 6011a00:	41 0b       	jsr	@r1
 6011a02:	00 09       	nop	
		buffer += 16 * sizeof(Sint32); // move to next palette
 6011a04:	61 e3       	mov	r14,r1
 6011a06:	71 f0       	add	#-16,r1
 6011a08:	62 e3       	mov	r14,r2
 6011a0a:	72 f0       	add	#-16,r2
 6011a0c:	52 27       	mov.l	@(28,r2),r2
 6011a0e:	72 40       	add	#64,r2
 6011a10:	11 27       	mov.l	r2,@(28,r1)
	for (int i = 0; i < numPals; i++) {
 6011a12:	61 e3       	mov	r14,r1
 6011a14:	71 f0       	add	#-16,r1
 6011a16:	62 e3       	mov	r14,r2
 6011a18:	72 f0       	add	#-16,r2
 6011a1a:	52 2f       	mov.l	@(60,r2),r2
 6011a1c:	72 01       	add	#1,r2
 6011a1e:	11 2f       	mov.l	r2,@(60,r1)
 6011a20:	61 e3       	mov	r14,r1
 6011a22:	71 f0       	add	#-16,r1
 6011a24:	51 1c       	mov.l	@(48,r1),r1
 6011a26:	62 e3       	mov	r14,r2
 6011a28:	72 f0       	add	#-16,r2
 6011a2a:	52 2f       	mov.l	@(60,r2),r2
 6011a2c:	32 13       	cmp/ge	r1,r2
 6011a2e:	8b d8       	bf	60119e2 <_Sprite_LoadPal+0x42>
	}

	// first 4 bytes after palettes is the number of sprites
	Sint32 numSprites;
	memcpy(&numSprites, buffer, sizeof(numSprites));
 6011a30:	61 e3       	mov	r14,r1
 6011a32:	71 f0       	add	#-16,r1
 6011a34:	62 e3       	mov	r14,r2
 6011a36:	72 1c       	add	#28,r2
 6011a38:	e6 04       	mov	#4,r6
 6011a3a:	55 17       	mov.l	@(28,r1),r5
 6011a3c:	64 23       	mov	r2,r4
 6011a3e:	d1 08       	mov.l	6011a60 <_Sprite_LoadPal+0xc0>,r1	! 601e9e8 <_memcpy>
 6011a40:	41 0b       	jsr	@r1
 6011a42:	00 09       	nop	
	buffer += sizeof(numSprites);
 6011a44:	61 e3       	mov	r14,r1
 6011a46:	71 f0       	add	#-16,r1
 6011a48:	62 e3       	mov	r14,r2
 6011a4a:	72 f0       	add	#-16,r2
 6011a4c:	52 27       	mov.l	@(28,r2),r2
 6011a4e:	72 04       	add	#4,r2
 6011a50:	11 27       	mov.l	r2,@(28,r1)

	// load all the sprites
	Sint32 spriteX;
	Sint32 spriteY;
	Sint32 spritePal;
	for (int i = 0; i < numSprites; i++) {
 6011a52:	61 e3       	mov	r14,r1
 6011a54:	71 f0       	add	#-16,r1
 6011a56:	e2 00       	mov	#0,r2
 6011a58:	11 2e       	mov.l	r2,@(56,r1)
 6011a5a:	a0 84       	bra	6011b66 <_Sprite_LoadPal+0x1c6>
 6011a5c:	00 09       	nop	
 6011a5e:	01 00       	.word 0x0100
 6011a60:	06 01       	.word 0x0601
 6011a62:	e9 e8       	mov	#-24,r9
 6011a64:	06 02       	stc	sr,r6
 6011a66:	1d 80       	mov.l	r8,@(0,r13)
 6011a68:	06 01       	.word 0x0601
 6011a6a:	c5 98       	mov.w	@(304,gbr),r0
		memcpy(&spriteX, buffer, sizeof(spriteX));
 6011a6c:	61 e3       	mov	r14,r1
 6011a6e:	71 f0       	add	#-16,r1
 6011a70:	62 e3       	mov	r14,r2
 6011a72:	72 18       	add	#24,r2
 6011a74:	e6 04       	mov	#4,r6
 6011a76:	55 17       	mov.l	@(28,r1),r5
 6011a78:	64 23       	mov	r2,r4
 6011a7a:	d1 57       	mov.l	6011bd8 <_Sprite_LoadPal+0x238>,r1	! 601e9e8 <_memcpy>
 6011a7c:	41 0b       	jsr	@r1
 6011a7e:	00 09       	nop	
		buffer += sizeof(spriteX);
 6011a80:	61 e3       	mov	r14,r1
 6011a82:	71 f0       	add	#-16,r1
 6011a84:	62 e3       	mov	r14,r2
 6011a86:	72 f0       	add	#-16,r2
 6011a88:	52 27       	mov.l	@(28,r2),r2
 6011a8a:	72 04       	add	#4,r2
 6011a8c:	11 27       	mov.l	r2,@(28,r1)
		memcpy(&spriteY, buffer, sizeof(spriteY));
 6011a8e:	61 e3       	mov	r14,r1
 6011a90:	71 f0       	add	#-16,r1
 6011a92:	62 e3       	mov	r14,r2
 6011a94:	72 14       	add	#20,r2
 6011a96:	e6 04       	mov	#4,r6
 6011a98:	55 17       	mov.l	@(28,r1),r5
 6011a9a:	64 23       	mov	r2,r4
 6011a9c:	d1 4e       	mov.l	6011bd8 <_Sprite_LoadPal+0x238>,r1	! 601e9e8 <_memcpy>
 6011a9e:	41 0b       	jsr	@r1
 6011aa0:	00 09       	nop	
        buffer += sizeof(spriteY);
 6011aa2:	61 e3       	mov	r14,r1
 6011aa4:	71 f0       	add	#-16,r1
 6011aa6:	62 e3       	mov	r14,r2
 6011aa8:	72 f0       	add	#-16,r2
 6011aaa:	52 27       	mov.l	@(28,r2),r2
 6011aac:	72 04       	add	#4,r2
 6011aae:	11 27       	mov.l	r2,@(28,r1)
		memcpy(&spritePal, buffer, sizeof(spritePal));
 6011ab0:	61 e3       	mov	r14,r1
 6011ab2:	71 f0       	add	#-16,r1
 6011ab4:	62 e3       	mov	r14,r2
 6011ab6:	72 10       	add	#16,r2
 6011ab8:	e6 04       	mov	#4,r6
 6011aba:	55 17       	mov.l	@(28,r1),r5
 6011abc:	64 23       	mov	r2,r4
 6011abe:	d1 46       	mov.l	6011bd8 <_Sprite_LoadPal+0x238>,r1	! 601e9e8 <_memcpy>
 6011ac0:	41 0b       	jsr	@r1
 6011ac2:	00 09       	nop	
		spritePal = (spritePal * 16) + palCnt;
 6011ac4:	61 e3       	mov	r14,r1
 6011ac6:	71 f0       	add	#-16,r1
 6011ac8:	51 18       	mov.l	@(32,r1),r1
 6011aca:	62 13       	mov	r1,r2
 6011acc:	42 08       	shll2	r2
 6011ace:	42 08       	shll2	r2
 6011ad0:	d1 42       	mov.l	6011bdc <_Sprite_LoadPal+0x23c>,r1	! 6021d80 <_palCnt>
 6011ad2:	61 12       	mov.l	@r1,r1
 6011ad4:	32 1c       	add	r1,r2
 6011ad6:	61 e3       	mov	r14,r1
 6011ad8:	71 f0       	add	#-16,r1
 6011ada:	11 28       	mov.l	r2,@(32,r1)
		buffer += sizeof(spritePal);
 6011adc:	61 e3       	mov	r14,r1
 6011ade:	71 f0       	add	#-16,r1
 6011ae0:	62 e3       	mov	r14,r2
 6011ae2:	72 f0       	add	#-16,r2
 6011ae4:	52 27       	mov.l	@(28,r2),r2
 6011ae6:	72 04       	add	#4,r2
 6011ae8:	11 27       	mov.l	r2,@(28,r1)
		SPR_2SetChar((Uint16)(i + tileCount), COLOR_0, (Uint16)(spritePal),
 6011aea:	61 e3       	mov	r14,r1
 6011aec:	71 f0       	add	#-16,r1
 6011aee:	51 1e       	mov.l	@(56,r1),r1
 6011af0:	62 1d       	extu.w	r1,r2
 6011af2:	d1 3b       	mov.l	6011be0 <_Sprite_LoadPal+0x240>,r1	! 6021d7c <_tileCount>
 6011af4:	61 12       	mov.l	@r1,r1
 6011af6:	61 1d       	extu.w	r1,r1
 6011af8:	31 2c       	add	r2,r1
 6011afa:	61 1d       	extu.w	r1,r1
 6011afc:	63 13       	mov	r1,r3
 6011afe:	61 e3       	mov	r14,r1
 6011b00:	71 f0       	add	#-16,r1
 6011b02:	51 18       	mov.l	@(32,r1),r1
 6011b04:	61 1d       	extu.w	r1,r1
 6011b06:	66 13       	mov	r1,r6
		  (Uint16)spriteX, (Uint16)spriteY, (Uint8 *)red);
 6011b08:	61 e3       	mov	r14,r1
 6011b0a:	71 f0       	add	#-16,r1
 6011b0c:	51 1a       	mov.l	@(40,r1),r1
 6011b0e:	61 1d       	extu.w	r1,r1
		SPR_2SetChar((Uint16)(i + tileCount), COLOR_0, (Uint16)(spritePal),
 6011b10:	67 13       	mov	r1,r7
		  (Uint16)spriteX, (Uint16)spriteY, (Uint8 *)red);
 6011b12:	61 e3       	mov	r14,r1
 6011b14:	71 f0       	add	#-16,r1
 6011b16:	51 19       	mov.l	@(36,r1),r1
 6011b18:	61 1d       	extu.w	r1,r1
		SPR_2SetChar((Uint16)(i + tileCount), COLOR_0, (Uint16)(spritePal),
 6011b1a:	62 13       	mov	r1,r2
 6011b1c:	d1 31       	mov.l	6011be4 <_Sprite_LoadPal+0x244>,r1	! 60342f4 <_red>
 6011b1e:	1f 11       	mov.l	r1,@(4,r15)
 6011b20:	2f 22       	mov.l	r2,@r15
 6011b22:	e5 00       	mov	#0,r5
 6011b24:	64 33       	mov	r3,r4
 6011b26:	d1 30       	mov.l	6011be8 <_Sprite_LoadPal+0x248>,r1	! 60187dc <_SPR_2SetChar>
 6011b28:	41 0b       	jsr	@r1
 6011b2a:	00 09       	nop	
		buffer += ((spriteX / 2) * spriteY);
 6011b2c:	61 e3       	mov	r14,r1
 6011b2e:	71 f0       	add	#-16,r1
 6011b30:	51 1a       	mov.l	@(40,r1),r1
 6011b32:	62 13       	mov	r1,r2
 6011b34:	42 00       	shll	r2
 6011b36:	02 29       	movt	r2
 6011b38:	31 2c       	add	r2,r1
 6011b3a:	41 21       	shar	r1
 6011b3c:	62 13       	mov	r1,r2
 6011b3e:	61 e3       	mov	r14,r1
 6011b40:	71 f0       	add	#-16,r1
 6011b42:	51 19       	mov.l	@(36,r1),r1
 6011b44:	02 17       	mul.l	r1,r2
 6011b46:	01 1a       	sts	macl,r1
 6011b48:	63 13       	mov	r1,r3
 6011b4a:	61 e3       	mov	r14,r1
 6011b4c:	71 f0       	add	#-16,r1
 6011b4e:	62 e3       	mov	r14,r2
 6011b50:	72 f0       	add	#-16,r2
 6011b52:	52 27       	mov.l	@(28,r2),r2
 6011b54:	32 3c       	add	r3,r2
 6011b56:	11 27       	mov.l	r2,@(28,r1)
	for (int i = 0; i < numSprites; i++) {
 6011b58:	61 e3       	mov	r14,r1
 6011b5a:	71 f0       	add	#-16,r1
 6011b5c:	62 e3       	mov	r14,r2
 6011b5e:	72 f0       	add	#-16,r2
 6011b60:	52 2e       	mov.l	@(56,r2),r2
 6011b62:	72 01       	add	#1,r2
 6011b64:	11 2e       	mov.l	r2,@(56,r1)
 6011b66:	61 e3       	mov	r14,r1
 6011b68:	71 f0       	add	#-16,r1
 6011b6a:	51 1b       	mov.l	@(44,r1),r1
 6011b6c:	62 e3       	mov	r14,r2
 6011b6e:	72 f0       	add	#-16,r2
 6011b70:	52 2e       	mov.l	@(56,r2),r2
 6011b72:	32 13       	cmp/ge	r1,r2
 6011b74:	89 01       	bt	6011b7a <_Sprite_LoadPal+0x1da>
 6011b76:	af 79       	bra	6011a6c <_Sprite_LoadPal+0xcc>
 6011b78:	00 09       	nop	
	}
	int sprite_tilebak = tileCount;
 6011b7a:	61 e3       	mov	r14,r1
 6011b7c:	71 f0       	add	#-16,r1
 6011b7e:	d2 18       	mov.l	6011be0 <_Sprite_LoadPal+0x240>,r2	! 6021d7c <_tileCount>
 6011b80:	62 22       	mov.l	@r2,r2
 6011b82:	11 2d       	mov.l	r2,@(52,r1)
	tileCount += numSprites;
 6011b84:	d1 16       	mov.l	6011be0 <_Sprite_LoadPal+0x240>,r1	! 6021d7c <_tileCount>
 6011b86:	62 12       	mov.l	@r1,r2
 6011b88:	61 e3       	mov	r14,r1
 6011b8a:	71 f0       	add	#-16,r1
 6011b8c:	51 1b       	mov.l	@(44,r1),r1
 6011b8e:	32 1c       	add	r1,r2
 6011b90:	d1 13       	mov.l	6011be0 <_Sprite_LoadPal+0x240>,r1	! 6021d7c <_tileCount>
 6011b92:	21 22       	mov.l	r2,@r1
	palCnt += (numPals * 16);
 6011b94:	61 e3       	mov	r14,r1
 6011b96:	71 f0       	add	#-16,r1
 6011b98:	51 1c       	mov.l	@(48,r1),r1
 6011b9a:	62 13       	mov	r1,r2
 6011b9c:	42 08       	shll2	r2
 6011b9e:	42 08       	shll2	r2
 6011ba0:	d1 0e       	mov.l	6011bdc <_Sprite_LoadPal+0x23c>,r1	! 6021d80 <_palCnt>
 6011ba2:	61 12       	mov.l	@r1,r1
 6011ba4:	32 1c       	add	r1,r2
 6011ba6:	d1 0d       	mov.l	6011bdc <_Sprite_LoadPal+0x23c>,r1	! 6021d80 <_palCnt>
 6011ba8:	21 22       	mov.l	r2,@r1
	if (count) {
 6011baa:	61 e3       	mov	r14,r1
 6011bac:	71 f0       	add	#-16,r1
 6011bae:	51 16       	mov.l	@(24,r1),r1
 6011bb0:	21 18       	tst	r1,r1
 6011bb2:	89 06       	bt	6011bc2 <_Sprite_LoadPal+0x222>
		*count = numSprites;
 6011bb4:	61 e3       	mov	r14,r1
 6011bb6:	71 f0       	add	#-16,r1
 6011bb8:	52 1b       	mov.l	@(44,r1),r2
 6011bba:	61 e3       	mov	r14,r1
 6011bbc:	71 f0       	add	#-16,r1
 6011bbe:	51 16       	mov.l	@(24,r1),r1
 6011bc0:	21 22       	mov.l	r2,@r1
	}
	return sprite_tilebak;
 6011bc2:	61 e3       	mov	r14,r1
 6011bc4:	71 f0       	add	#-16,r1
 6011bc6:	51 1d       	mov.l	@(52,r1),r1
}
 6011bc8:	60 13       	mov	r1,r0
 6011bca:	7e 30       	add	#48,r14
 6011bcc:	6f e3       	mov	r14,r15
 6011bce:	4f 26       	lds.l	@r15+,pr
 6011bd0:	6e f6       	mov.l	@r15+,r14
 6011bd2:	00 0b       	rts	
 6011bd4:	00 09       	nop	
 6011bd6:	00 09       	nop	
 6011bd8:	06 01       	.word 0x0601
 6011bda:	e9 e8       	mov	#-24,r9
 6011bdc:	06 02       	stc	sr,r6
 6011bde:	1d 80       	mov.l	r8,@(0,r13)
 6011be0:	06 02       	stc	sr,r6
 6011be2:	1d 7c       	mov.l	r7,@(48,r13)
 6011be4:	06 03       	bsrf	r6
 6011be6:	42 f4       	.word 0x42f4
 6011be8:	06 01       	.word 0x0601
 6011bea:	87 dc       	.word 0x87dc

06011bec <_Sprite_LoadRGB>:

static int Sprite_LoadRGB(Uint8 *buffer, int *count) {
 6011bec:	2f e6       	mov.l	r14,@-r15
 6011bee:	4f 22       	sts.l	pr,@-r15
 6011bf0:	7f dc       	add	#-36,r15
 6011bf2:	6e f3       	mov	r15,r14
 6011bf4:	61 e3       	mov	r14,r1
 6011bf6:	71 e4       	add	#-28,r1
 6011bf8:	11 4a       	mov.l	r4,@(40,r1)
 6011bfa:	61 e3       	mov	r14,r1
 6011bfc:	71 e4       	add	#-28,r1
 6011bfe:	11 59       	mov.l	r5,@(36,r1)
	// first 4 bytes is the number of sprites
	Sint32 numSprites;
	memcpy(&numSprites, buffer, sizeof(numSprites));
 6011c00:	61 e3       	mov	r14,r1
 6011c02:	71 e4       	add	#-28,r1
 6011c04:	62 e3       	mov	r14,r2
 6011c06:	72 18       	add	#24,r2
 6011c08:	e6 04       	mov	#4,r6
 6011c0a:	55 1a       	mov.l	@(40,r1),r5
 6011c0c:	64 23       	mov	r2,r4
 6011c0e:	d1 4a       	mov.l	6011d38 <_Sprite_LoadRGB+0x14c>,r1	! 601e9e8 <_memcpy>
 6011c10:	41 0b       	jsr	@r1
 6011c12:	00 09       	nop	
	buffer += sizeof(numSprites);
 6011c14:	61 e3       	mov	r14,r1
 6011c16:	71 e4       	add	#-28,r1
 6011c18:	62 e3       	mov	r14,r2
 6011c1a:	72 e4       	add	#-28,r2
 6011c1c:	52 2a       	mov.l	@(40,r2),r2
 6011c1e:	72 04       	add	#4,r2
 6011c20:	11 2a       	mov.l	r2,@(40,r1)

	// load all the sprites
	Sint32 spriteX;
	Sint32 spriteY;
	for (int i = 0; i < numSprites; i++) {
 6011c22:	61 e3       	mov	r14,r1
 6011c24:	71 e4       	add	#-28,r1
 6011c26:	e2 00       	mov	#0,r2
 6011c28:	11 2f       	mov.l	r2,@(60,r1)
 6011c2a:	a0 59       	bra	6011ce0 <_Sprite_LoadRGB+0xf4>
 6011c2c:	00 09       	nop	
		memcpy(&spriteX, buffer, sizeof(spriteX));
 6011c2e:	61 e3       	mov	r14,r1
 6011c30:	71 e4       	add	#-28,r1
 6011c32:	62 e3       	mov	r14,r2
 6011c34:	72 14       	add	#20,r2
 6011c36:	e6 04       	mov	#4,r6
 6011c38:	55 1a       	mov.l	@(40,r1),r5
 6011c3a:	64 23       	mov	r2,r4
 6011c3c:	d1 3e       	mov.l	6011d38 <_Sprite_LoadRGB+0x14c>,r1	! 601e9e8 <_memcpy>
 6011c3e:	41 0b       	jsr	@r1
 6011c40:	00 09       	nop	
		buffer += sizeof(spriteX);
 6011c42:	61 e3       	mov	r14,r1
 6011c44:	71 e4       	add	#-28,r1
 6011c46:	62 e3       	mov	r14,r2
 6011c48:	72 e4       	add	#-28,r2
 6011c4a:	52 2a       	mov.l	@(40,r2),r2
 6011c4c:	72 04       	add	#4,r2
 6011c4e:	11 2a       	mov.l	r2,@(40,r1)
		memcpy(&spriteY, buffer, sizeof(spriteY));
 6011c50:	61 e3       	mov	r14,r1
 6011c52:	71 e4       	add	#-28,r1
 6011c54:	62 e3       	mov	r14,r2
 6011c56:	72 10       	add	#16,r2
 6011c58:	e6 04       	mov	#4,r6
 6011c5a:	55 1a       	mov.l	@(40,r1),r5
 6011c5c:	64 23       	mov	r2,r4
 6011c5e:	d1 36       	mov.l	6011d38 <_Sprite_LoadRGB+0x14c>,r1	! 601e9e8 <_memcpy>
 6011c60:	41 0b       	jsr	@r1
 6011c62:	00 09       	nop	
		buffer += sizeof(spriteY);
 6011c64:	61 e3       	mov	r14,r1
 6011c66:	71 e4       	add	#-28,r1
 6011c68:	62 e3       	mov	r14,r2
 6011c6a:	72 e4       	add	#-28,r2
 6011c6c:	52 2a       	mov.l	@(40,r2),r2
 6011c6e:	72 04       	add	#4,r2
 6011c70:	11 2a       	mov.l	r2,@(40,r1)
		SPR_2SetChar((Uint16)(i + tileCount), COLOR_5, 0,
 6011c72:	61 e3       	mov	r14,r1
 6011c74:	71 e4       	add	#-28,r1
 6011c76:	51 1f       	mov.l	@(60,r1),r1
 6011c78:	62 1d       	extu.w	r1,r2
 6011c7a:	d1 30       	mov.l	6011d3c <_Sprite_LoadRGB+0x150>,r1	! 6021d7c <_tileCount>
 6011c7c:	61 12       	mov.l	@r1,r1
 6011c7e:	61 1d       	extu.w	r1,r1
 6011c80:	31 2c       	add	r2,r1
 6011c82:	61 1d       	extu.w	r1,r1
 6011c84:	63 13       	mov	r1,r3
		  (Uint16)spriteX, (Uint16)spriteY, buffer);
 6011c86:	61 e3       	mov	r14,r1
 6011c88:	71 e4       	add	#-28,r1
 6011c8a:	51 1c       	mov.l	@(48,r1),r1
 6011c8c:	61 1d       	extu.w	r1,r1
		SPR_2SetChar((Uint16)(i + tileCount), COLOR_5, 0,
 6011c8e:	67 13       	mov	r1,r7
		  (Uint16)spriteX, (Uint16)spriteY, buffer);
 6011c90:	61 e3       	mov	r14,r1
 6011c92:	71 e4       	add	#-28,r1
 6011c94:	51 1b       	mov.l	@(44,r1),r1
 6011c96:	61 1d       	extu.w	r1,r1
		SPR_2SetChar((Uint16)(i + tileCount), COLOR_5, 0,
 6011c98:	62 13       	mov	r1,r2
 6011c9a:	61 e3       	mov	r14,r1
 6011c9c:	71 e4       	add	#-28,r1
 6011c9e:	51 1a       	mov.l	@(40,r1),r1
 6011ca0:	1f 11       	mov.l	r1,@(4,r15)
 6011ca2:	2f 22       	mov.l	r2,@r15
 6011ca4:	e6 00       	mov	#0,r6
 6011ca6:	e5 28       	mov	#40,r5
 6011ca8:	64 33       	mov	r3,r4
 6011caa:	d1 25       	mov.l	6011d40 <_Sprite_LoadRGB+0x154>,r1	! 60187dc <_SPR_2SetChar>
 6011cac:	41 0b       	jsr	@r1
 6011cae:	00 09       	nop	
		buffer += (spriteX * spriteY * 2);
 6011cb0:	61 e3       	mov	r14,r1
 6011cb2:	71 e4       	add	#-28,r1
 6011cb4:	52 1c       	mov.l	@(48,r1),r2
 6011cb6:	61 e3       	mov	r14,r1
 6011cb8:	71 e4       	add	#-28,r1
 6011cba:	51 1b       	mov.l	@(44,r1),r1
 6011cbc:	02 17       	mul.l	r1,r2
 6011cbe:	01 1a       	sts	macl,r1
 6011cc0:	31 1c       	add	r1,r1
 6011cc2:	63 13       	mov	r1,r3
 6011cc4:	61 e3       	mov	r14,r1
 6011cc6:	71 e4       	add	#-28,r1
 6011cc8:	62 e3       	mov	r14,r2
 6011cca:	72 e4       	add	#-28,r2
 6011ccc:	52 2a       	mov.l	@(40,r2),r2
 6011cce:	32 3c       	add	r3,r2
 6011cd0:	11 2a       	mov.l	r2,@(40,r1)
	for (int i = 0; i < numSprites; i++) {
 6011cd2:	61 e3       	mov	r14,r1
 6011cd4:	71 e4       	add	#-28,r1
 6011cd6:	62 e3       	mov	r14,r2
 6011cd8:	72 e4       	add	#-28,r2
 6011cda:	52 2f       	mov.l	@(60,r2),r2
 6011cdc:	72 01       	add	#1,r2
 6011cde:	11 2f       	mov.l	r2,@(60,r1)
 6011ce0:	61 e3       	mov	r14,r1
 6011ce2:	71 e4       	add	#-28,r1
 6011ce4:	51 1d       	mov.l	@(52,r1),r1
 6011ce6:	62 e3       	mov	r14,r2
 6011ce8:	72 e4       	add	#-28,r2
 6011cea:	52 2f       	mov.l	@(60,r2),r2
 6011cec:	32 13       	cmp/ge	r1,r2
 6011cee:	8b 9e       	bf	6011c2e <_Sprite_LoadRGB+0x42>
	}
	int sprite_tilebak = tileCount;
 6011cf0:	61 e3       	mov	r14,r1
 6011cf2:	71 e4       	add	#-28,r1
 6011cf4:	d2 11       	mov.l	6011d3c <_Sprite_LoadRGB+0x150>,r2	! 6021d7c <_tileCount>
 6011cf6:	62 22       	mov.l	@r2,r2
 6011cf8:	11 2e       	mov.l	r2,@(56,r1)
	tileCount += numSprites;
 6011cfa:	d1 10       	mov.l	6011d3c <_Sprite_LoadRGB+0x150>,r1	! 6021d7c <_tileCount>
 6011cfc:	62 12       	mov.l	@r1,r2
 6011cfe:	61 e3       	mov	r14,r1
 6011d00:	71 e4       	add	#-28,r1
 6011d02:	51 1d       	mov.l	@(52,r1),r1
 6011d04:	32 1c       	add	r1,r2
 6011d06:	d1 0d       	mov.l	6011d3c <_Sprite_LoadRGB+0x150>,r1	! 6021d7c <_tileCount>
 6011d08:	21 22       	mov.l	r2,@r1
	if (count) {
 6011d0a:	61 e3       	mov	r14,r1
 6011d0c:	71 e4       	add	#-28,r1
 6011d0e:	51 19       	mov.l	@(36,r1),r1
 6011d10:	21 18       	tst	r1,r1
 6011d12:	89 06       	bt	6011d22 <_Sprite_LoadRGB+0x136>
		*count = numSprites;
 6011d14:	61 e3       	mov	r14,r1
 6011d16:	71 e4       	add	#-28,r1
 6011d18:	52 1d       	mov.l	@(52,r1),r2
 6011d1a:	61 e3       	mov	r14,r1
 6011d1c:	71 e4       	add	#-28,r1
 6011d1e:	51 19       	mov.l	@(36,r1),r1
 6011d20:	21 22       	mov.l	r2,@r1
	}
	return sprite_tilebak;
 6011d22:	61 e3       	mov	r14,r1
 6011d24:	71 e4       	add	#-28,r1
 6011d26:	51 1e       	mov.l	@(56,r1),r1
}
 6011d28:	60 13       	mov	r1,r0
 6011d2a:	7e 24       	add	#36,r14
 6011d2c:	6f e3       	mov	r14,r15
 6011d2e:	4f 26       	lds.l	@r15+,pr
 6011d30:	6e f6       	mov.l	@r15+,r14
 6011d32:	00 0b       	rts	
 6011d34:	00 09       	nop	
 6011d36:	00 09       	nop	
 6011d38:	06 01       	.word 0x0601
 6011d3a:	e9 e8       	mov	#-24,r9
 6011d3c:	06 02       	stc	sr,r6
 6011d3e:	1d 7c       	mov.l	r7,@(48,r13)
 6011d40:	06 01       	.word 0x0601
 6011d42:	87 dc       	.word 0x87dc

06011d44 <_Sprite_Load>:

int Sprite_Load(char *filename, int *count) {
 6011d44:	2f e6       	mov.l	r14,@-r15
 6011d46:	4f 22       	sts.l	pr,@-r15
 6011d48:	7f f0       	add	#-16,r15
 6011d4a:	6e f3       	mov	r15,r14
 6011d4c:	61 e3       	mov	r14,r1
 6011d4e:	71 d0       	add	#-48,r1
 6011d50:	11 4d       	mov.l	r4,@(52,r1)
 6011d52:	61 e3       	mov	r14,r1
 6011d54:	71 d0       	add	#-48,r1
 6011d56:	11 5c       	mov.l	r5,@(48,r1)
	CD_Load(filename, spriteBuf);
 6011d58:	d2 1f       	mov.l	6011dd8 <_Sprite_Load+0x94>,r2	! 60242f4 <_spriteBuf>
 6011d5a:	61 e3       	mov	r14,r1
 6011d5c:	71 d0       	add	#-48,r1
 6011d5e:	65 23       	mov	r2,r5
 6011d60:	54 1d       	mov.l	@(52,r1),r4
 6011d62:	d1 1e       	mov.l	6011ddc <_Sprite_Load+0x98>,r1	! 60102dc <_CD_Load>
 6011d64:	41 0b       	jsr	@r1
 6011d66:	00 09       	nop	
    Sint32 type;

    for (int i = 0; i < 64; i++) {
 6011d68:	61 e3       	mov	r14,r1
 6011d6a:	71 d0       	add	#-48,r1
 6011d6c:	e2 00       	mov	#0,r2
 6011d6e:	11 2f       	mov.l	r2,@(60,r1)
 6011d70:	a0 0f       	bra	6011d92 <_Sprite_Load+0x4e>
 6011d72:	00 09       	nop	
        red[i] = RGB16_COLOR(31, 0, 0);
 6011d74:	d2 1a       	mov.l	6011de0 <_Sprite_Load+0x9c>,r2	! 60342f4 <_red>
 6011d76:	61 e3       	mov	r14,r1
 6011d78:	71 d0       	add	#-48,r1
 6011d7a:	51 1f       	mov.l	@(60,r1),r1
 6011d7c:	31 1c       	add	r1,r1
 6011d7e:	31 2c       	add	r2,r1
 6011d80:	92 29       	mov.w	6011dd6 <_Sprite_Load+0x92>,r2	! 801f
 6011d82:	21 21       	mov.w	r2,@r1
    for (int i = 0; i < 64; i++) {
 6011d84:	61 e3       	mov	r14,r1
 6011d86:	71 d0       	add	#-48,r1
 6011d88:	62 e3       	mov	r14,r2
 6011d8a:	72 d0       	add	#-48,r2
 6011d8c:	52 2f       	mov.l	@(60,r2),r2
 6011d8e:	72 01       	add	#1,r2
 6011d90:	11 2f       	mov.l	r2,@(60,r1)
 6011d92:	61 e3       	mov	r14,r1
 6011d94:	71 d0       	add	#-48,r1
 6011d96:	52 1f       	mov.l	@(60,r1),r2
 6011d98:	e1 3f       	mov	#63,r1
 6011d9a:	32 17       	cmp/gt	r1,r2
 6011d9c:	8b ea       	bf	6011d74 <_Sprite_Load+0x30>
 6011d9e:	d1 0e       	mov.l	6011dd8 <_Sprite_Load+0x94>,r1	! 60242f4 <_spriteBuf>
 6011da0:	62 12       	mov.l	@r1,r2
    }

    memcpy(&type, spriteBuf, sizeof(type));
 6011da2:	61 e3       	mov	r14,r1
 6011da4:	71 d0       	add	#-48,r1
 6011da6:	11 2e       	mov.l	r2,@(56,r1)
    if (type == 0) {
 6011da8:	61 e3       	mov	r14,r1
 6011daa:	71 d0       	add	#-48,r1
 6011dac:	51 1e       	mov.l	@(56,r1),r1
 6011dae:	21 18       	tst	r1,r1
 6011db0:	8b 01       	bf	6011db6 <_Sprite_Load+0x72>
        while (1);
 6011db2:	af fe       	bra	6011db2 <_Sprite_Load+0x6e>
 6011db4:	00 09       	nop	
        return Sprite_LoadPal(spriteBuf + sizeof(type), count);
    }
    else {
        return Sprite_LoadRGB(spriteBuf + sizeof(type), count);
 6011db6:	d2 0b       	mov.l	6011de4 <_Sprite_Load+0xa0>,r2	! 60242f8
 6011db8:	61 e3       	mov	r14,r1
 6011dba:	71 d0       	add	#-48,r1
 6011dbc:	55 1c       	mov.l	@(48,r1),r5
 6011dbe:	64 23       	mov	r2,r4
 6011dc0:	d1 09       	mov.l	6011de8 <_Sprite_Load+0xa4>,r1	! 6011bec <_Sprite_LoadRGB>
 6011dc2:	41 0b       	jsr	@r1
 6011dc4:	00 09       	nop	
 6011dc6:	61 03       	mov	r0,r1
    }
}
 6011dc8:	60 13       	mov	r1,r0
 6011dca:	7e 10       	add	#16,r14
 6011dcc:	6f e3       	mov	r14,r15
 6011dce:	4f 26       	lds.l	@r15+,pr
 6011dd0:	6e f6       	mov.l	@r15+,r14
 6011dd2:	00 0b       	rts	
 6011dd4:	00 09       	nop	
 6011dd6:	80 1f       	mov.b	r0,@(15,r1)
 6011dd8:	06 02       	stc	sr,r6
 6011dda:	42 f4       	.word 0x42f4
 6011ddc:	06 01       	.word 0x0601
 6011dde:	02 dc       	mov.b	@(r0,r13),r2
 6011de0:	06 03       	bsrf	r6
 6011de2:	42 f4       	.word 0x42f4
 6011de4:	06 02       	stc	sr,r6
 6011de6:	42 f8       	.word 0x42f8
 6011de8:	06 01       	.word 0x0601
 6011dea:	1b ec       	mov.l	r14,@(48,r11)

06011dec <_Sprite_StartDraw>:


void Sprite_StartDraw(void) {
 6011dec:	2f e6       	mov.l	r14,@-r15
 6011dee:	4f 22       	sts.l	pr,@-r15
 6011df0:	7f fc       	add	#-4,r15
 6011df2:	6e f3       	mov	r15,r14
	XyInt xy;

	SPR_2OpenCommand(SPR_2DRAW_PRTY_OFF);
 6011df4:	e4 00       	mov	#0,r4
 6011df6:	d1 0c       	mov.l	6011e28 <_Sprite_StartDraw+0x3c>,r1	! 6018c50 <_SPR_2OpenCommand>
 6011df8:	41 0b       	jsr	@r1
 6011dfa:	00 09       	nop	
	xy.x = 320;
 6011dfc:	61 e3       	mov	r14,r1
 6011dfe:	92 11       	mov.w	6011e24 <_Sprite_StartDraw+0x38>,r2	! 140
 6011e00:	21 21       	mov.w	r2,@r1
	xy.y = 240;
 6011e02:	61 e3       	mov	r14,r1
 6011e04:	92 0f       	mov.w	6011e26 <_Sprite_StartDraw+0x3a>,r2	! f0
 6011e06:	60 23       	mov	r2,r0
 6011e08:	81 11       	mov.w	r0,@(2,r1)
	SPR_2SysClip(0, &xy);
 6011e0a:	61 e3       	mov	r14,r1
 6011e0c:	65 13       	mov	r1,r5
 6011e0e:	e4 00       	mov	#0,r4
 6011e10:	d1 06       	mov.l	6011e2c <_Sprite_StartDraw+0x40>,r1	! 6018ea0 <_SPR_2SysClip>
 6011e12:	41 0b       	jsr	@r1
 6011e14:	00 09       	nop	
	// sprite_erase(xy.x, xy.y);
}
 6011e16:	00 09       	nop	
 6011e18:	7e 04       	add	#4,r14
 6011e1a:	6f e3       	mov	r14,r15
 6011e1c:	4f 26       	lds.l	@r15+,pr
 6011e1e:	6e f6       	mov.l	@r15+,r14
 6011e20:	00 0b       	rts	
 6011e22:	00 09       	nop	
 6011e24:	01 40       	.word 0x0140
 6011e26:	00 f0       	.word 0x00f0
 6011e28:	06 01       	.word 0x0601
 6011e2a:	8c 50       	.word 0x8c50
 6011e2c:	06 01       	.word 0x0601
 6011e2e:	8e a0       	.word 0x8ea0

06011e30 <_Sprite_Draw>:

void Sprite_Draw(SPRITE_INFO *info) {
 6011e30:	2f 86       	mov.l	r8,@-r15
 6011e32:	2f e6       	mov.l	r14,@-r15
 6011e34:	4f 22       	sts.l	pr,@-r15
 6011e36:	7f c4       	add	#-60,r15
 6011e38:	6e f3       	mov	r15,r14
 6011e3a:	61 e3       	mov	r14,r1
 6011e3c:	71 fc       	add	#-4,r1
 6011e3e:	11 44       	mov.l	r4,@(16,r1)
	XyInt xy[4];
	Fixed32 xOffset, yOffset, sin, cos, scaledX, scaledY;

	if (info->scale == MTH_FIXED(1) && info->angle == 0) {
 6011e40:	61 e3       	mov	r14,r1
 6011e42:	71 fc       	add	#-4,r1
 6011e44:	51 14       	mov.l	@(16,r1),r1
 6011e46:	52 16       	mov.l	@(24,r1),r2
 6011e48:	d1 5f       	mov.l	6011fc8 <_Sprite_Draw+0x198>,r1	! 10000
 6011e4a:	32 10       	cmp/eq	r1,r2
 6011e4c:	8b 3e       	bf	6011ecc <_Sprite_Draw+0x9c>
 6011e4e:	61 e3       	mov	r14,r1
 6011e50:	71 fc       	add	#-4,r1
 6011e52:	51 14       	mov.l	@(16,r1),r1
 6011e54:	51 17       	mov.l	@(28,r1),r1
 6011e56:	21 18       	tst	r1,r1
 6011e58:	8b 38       	bf	6011ecc <_Sprite_Draw+0x9c>
		xy[0].x = (Sint16)MTH_FixedToInt(info->x);
 6011e5a:	61 e3       	mov	r14,r1
 6011e5c:	71 fc       	add	#-4,r1
 6011e5e:	51 14       	mov.l	@(16,r1),r1
 6011e60:	51 12       	mov.l	@(8,r1),r1
 6011e62:	64 13       	mov	r1,r4
 6011e64:	d1 59       	mov.l	6011fcc <_Sprite_Draw+0x19c>,r1	! 60171b8 <_MTH_FixedToInt>
 6011e66:	41 0b       	jsr	@r1
 6011e68:	00 09       	nop	
 6011e6a:	61 03       	mov	r0,r1
 6011e6c:	62 1f       	exts.w	r1,r2
 6011e6e:	61 e3       	mov	r14,r1
 6011e70:	71 10       	add	#16,r1
 6011e72:	21 21       	mov.w	r2,@r1
		xy[0].y = (Sint16)MTH_FixedToInt(info->y);
 6011e74:	61 e3       	mov	r14,r1
 6011e76:	71 fc       	add	#-4,r1
 6011e78:	51 14       	mov.l	@(16,r1),r1
 6011e7a:	51 13       	mov.l	@(12,r1),r1
 6011e7c:	64 13       	mov	r1,r4
 6011e7e:	d1 53       	mov.l	6011fcc <_Sprite_Draw+0x19c>,r1	! 60171b8 <_MTH_FixedToInt>
 6011e80:	41 0b       	jsr	@r1
 6011e82:	00 09       	nop	
 6011e84:	61 03       	mov	r0,r1
 6011e86:	62 1f       	exts.w	r1,r2
 6011e88:	61 e3       	mov	r14,r1
 6011e8a:	71 10       	add	#16,r1
 6011e8c:	60 23       	mov	r2,r0
 6011e8e:	81 11       	mov.w	r0,@(2,r1)
		SPR_2NormSpr(0, info->mirror, ENDCODE_DISABLE | (1 << 11) | (1 << 12), 0xffff, info->charNum, xy, NO_GOUR); //4bpp normal sprite
 6011e90:	61 e3       	mov	r14,r1
 6011e92:	71 fc       	add	#-4,r1
 6011e94:	51 14       	mov.l	@(16,r1),r1
 6011e96:	71 20       	add	#32,r1
 6011e98:	61 11       	mov.w	@r1,r1
 6011e9a:	61 1d       	extu.w	r1,r1
 6011e9c:	65 13       	mov	r1,r5
 6011e9e:	61 e3       	mov	r14,r1
 6011ea0:	71 fc       	add	#-4,r1
 6011ea2:	51 14       	mov.l	@(16,r1),r1
 6011ea4:	85 11       	mov.w	@(2,r1),r0
 6011ea6:	61 03       	mov	r0,r1
 6011ea8:	61 1d       	extu.w	r1,r1
 6011eaa:	67 13       	mov	r1,r7
 6011eac:	d3 48       	mov.l	6011fd0 <_Sprite_Draw+0x1a0>,r3	! ffff
 6011eae:	92 88       	mov.w	6011fc2 <_Sprite_Draw+0x192>,r2	! 1880
 6011eb0:	d1 47       	mov.l	6011fd0 <_Sprite_Draw+0x1a0>,r1	! ffff
 6011eb2:	1f 12       	mov.l	r1,@(8,r15)
 6011eb4:	61 e3       	mov	r14,r1
 6011eb6:	71 10       	add	#16,r1
 6011eb8:	1f 11       	mov.l	r1,@(4,r15)
 6011eba:	2f 72       	mov.l	r7,@r15
 6011ebc:	67 33       	mov	r3,r7
 6011ebe:	66 23       	mov	r2,r6
 6011ec0:	e4 00       	mov	#0,r4
 6011ec2:	d1 44       	mov.l	6011fd4 <_Sprite_Draw+0x1a4>,r1	! 6019114 <_SPR_2NormSpr>
 6011ec4:	41 0b       	jsr	@r1
 6011ec6:	00 09       	nop	
			xy[i].y = (Sint16)MTH_FixedToInt(MTH_Mul(xOffset, sin) +
				MTH_Mul(yOffset, cos) + scaledY);
		}
		SPR_2DistSpr(0, info->mirror, ENDCODE_DISABLE, 0xffff, info->charNum, xy, NO_GOUR); //4bpp distorted sprite
	}
}
 6011ec8:	a1 a3       	bra	6012212 <_Sprite_Draw+0x3e2>
 6011eca:	00 09       	nop	
	else if (info->angle == 0){	
 6011ecc:	61 e3       	mov	r14,r1
 6011ece:	71 fc       	add	#-4,r1
 6011ed0:	51 14       	mov.l	@(16,r1),r1
 6011ed2:	51 17       	mov.l	@(28,r1),r1
 6011ed4:	21 18       	tst	r1,r1
 6011ed6:	89 01       	bt	6011edc <_Sprite_Draw+0xac>
 6011ed8:	a0 82       	bra	6011fe0 <_Sprite_Draw+0x1b0>
 6011eda:	00 09       	nop	
		xy[0].x = (Sint16)MTH_FixedToInt(info->x);
 6011edc:	61 e3       	mov	r14,r1
 6011ede:	71 fc       	add	#-4,r1
 6011ee0:	51 14       	mov.l	@(16,r1),r1
 6011ee2:	51 12       	mov.l	@(8,r1),r1
 6011ee4:	64 13       	mov	r1,r4
 6011ee6:	d1 39       	mov.l	6011fcc <_Sprite_Draw+0x19c>,r1	! 60171b8 <_MTH_FixedToInt>
 6011ee8:	41 0b       	jsr	@r1
 6011eea:	00 09       	nop	
 6011eec:	61 03       	mov	r0,r1
 6011eee:	62 1f       	exts.w	r1,r2
 6011ef0:	61 e3       	mov	r14,r1
 6011ef2:	71 10       	add	#16,r1
 6011ef4:	21 21       	mov.w	r2,@r1
		xy[0].y = (Sint16)MTH_FixedToInt(info->y);
 6011ef6:	61 e3       	mov	r14,r1
 6011ef8:	71 fc       	add	#-4,r1
 6011efa:	51 14       	mov.l	@(16,r1),r1
 6011efc:	51 13       	mov.l	@(12,r1),r1
 6011efe:	64 13       	mov	r1,r4
 6011f00:	d1 32       	mov.l	6011fcc <_Sprite_Draw+0x19c>,r1	! 60171b8 <_MTH_FixedToInt>
 6011f02:	41 0b       	jsr	@r1
 6011f04:	00 09       	nop	
 6011f06:	61 03       	mov	r0,r1
 6011f08:	62 1f       	exts.w	r1,r2
 6011f0a:	61 e3       	mov	r14,r1
 6011f0c:	71 10       	add	#16,r1
 6011f0e:	60 23       	mov	r2,r0
 6011f10:	81 11       	mov.w	r0,@(2,r1)
		xy[1].x = (Sint16)(MTH_FixedToInt(MTH_Mul(info->xSize, info->scale) + info->x));
 6011f12:	61 e3       	mov	r14,r1
 6011f14:	71 fc       	add	#-4,r1
 6011f16:	51 14       	mov.l	@(16,r1),r1
 6011f18:	52 14       	mov.l	@(16,r1),r2
 6011f1a:	61 e3       	mov	r14,r1
 6011f1c:	71 fc       	add	#-4,r1
 6011f1e:	51 14       	mov.l	@(16,r1),r1
 6011f20:	51 16       	mov.l	@(24,r1),r1
 6011f22:	65 13       	mov	r1,r5
 6011f24:	64 23       	mov	r2,r4
 6011f26:	d1 2c       	mov.l	6011fd8 <_Sprite_Draw+0x1a8>,r1	! 6017188 <_MTH_Mul>
 6011f28:	41 0b       	jsr	@r1
 6011f2a:	00 09       	nop	
 6011f2c:	61 03       	mov	r0,r1
 6011f2e:	62 e3       	mov	r14,r2
 6011f30:	72 fc       	add	#-4,r2
 6011f32:	52 24       	mov.l	@(16,r2),r2
 6011f34:	52 22       	mov.l	@(8,r2),r2
 6011f36:	31 2c       	add	r2,r1
 6011f38:	64 13       	mov	r1,r4
 6011f3a:	d1 24       	mov.l	6011fcc <_Sprite_Draw+0x19c>,r1	! 60171b8 <_MTH_FixedToInt>
 6011f3c:	41 0b       	jsr	@r1
 6011f3e:	00 09       	nop	
 6011f40:	61 03       	mov	r0,r1
 6011f42:	62 1f       	exts.w	r1,r2
 6011f44:	61 e3       	mov	r14,r1
 6011f46:	71 10       	add	#16,r1
 6011f48:	60 23       	mov	r2,r0
 6011f4a:	81 12       	mov.w	r0,@(4,r1)
		xy[1].y = (Sint16)(MTH_FixedToInt(MTH_Mul(info->ySize, info->scale) + info->y));
 6011f4c:	61 e3       	mov	r14,r1
 6011f4e:	71 fc       	add	#-4,r1
 6011f50:	51 14       	mov.l	@(16,r1),r1
 6011f52:	52 15       	mov.l	@(20,r1),r2
 6011f54:	61 e3       	mov	r14,r1
 6011f56:	71 fc       	add	#-4,r1
 6011f58:	51 14       	mov.l	@(16,r1),r1
 6011f5a:	51 16       	mov.l	@(24,r1),r1
 6011f5c:	65 13       	mov	r1,r5
 6011f5e:	64 23       	mov	r2,r4
 6011f60:	d1 1d       	mov.l	6011fd8 <_Sprite_Draw+0x1a8>,r1	! 6017188 <_MTH_Mul>
 6011f62:	41 0b       	jsr	@r1
 6011f64:	00 09       	nop	
 6011f66:	61 03       	mov	r0,r1
 6011f68:	62 e3       	mov	r14,r2
 6011f6a:	72 fc       	add	#-4,r2
 6011f6c:	52 24       	mov.l	@(16,r2),r2
 6011f6e:	52 23       	mov.l	@(12,r2),r2
 6011f70:	31 2c       	add	r2,r1
 6011f72:	64 13       	mov	r1,r4
 6011f74:	d1 15       	mov.l	6011fcc <_Sprite_Draw+0x19c>,r1	! 60171b8 <_MTH_FixedToInt>
 6011f76:	41 0b       	jsr	@r1
 6011f78:	00 09       	nop	
 6011f7a:	61 03       	mov	r0,r1
 6011f7c:	62 1f       	exts.w	r1,r2
 6011f7e:	61 e3       	mov	r14,r1
 6011f80:	71 10       	add	#16,r1
 6011f82:	60 23       	mov	r2,r0
 6011f84:	81 13       	mov.w	r0,@(6,r1)
		SPR_2ScaleSpr(0, info->mirror, ENDCODE_DISABLE, 0xffff, info->charNum, xy, NO_GOUR); //4bpp scaled sprite
 6011f86:	61 e3       	mov	r14,r1
 6011f88:	71 fc       	add	#-4,r1
 6011f8a:	51 14       	mov.l	@(16,r1),r1
 6011f8c:	71 20       	add	#32,r1
 6011f8e:	61 11       	mov.w	@r1,r1
 6011f90:	61 1d       	extu.w	r1,r1
 6011f92:	65 13       	mov	r1,r5
 6011f94:	61 e3       	mov	r14,r1
 6011f96:	71 fc       	add	#-4,r1
 6011f98:	51 14       	mov.l	@(16,r1),r1
 6011f9a:	85 11       	mov.w	@(2,r1),r0
 6011f9c:	61 03       	mov	r0,r1
 6011f9e:	61 1d       	extu.w	r1,r1
 6011fa0:	67 13       	mov	r1,r7
 6011fa2:	d3 0b       	mov.l	6011fd0 <_Sprite_Draw+0x1a0>,r3	! ffff
 6011fa4:	92 0e       	mov.w	6011fc4 <_Sprite_Draw+0x194>,r2	! 80
 6011fa6:	d1 0a       	mov.l	6011fd0 <_Sprite_Draw+0x1a0>,r1	! ffff
 6011fa8:	1f 12       	mov.l	r1,@(8,r15)
 6011faa:	61 e3       	mov	r14,r1
 6011fac:	71 10       	add	#16,r1
 6011fae:	1f 11       	mov.l	r1,@(4,r15)
 6011fb0:	2f 72       	mov.l	r7,@r15
 6011fb2:	67 33       	mov	r3,r7
 6011fb4:	66 23       	mov	r2,r6
 6011fb6:	e4 00       	mov	#0,r4
 6011fb8:	d1 08       	mov.l	6011fdc <_Sprite_Draw+0x1ac>,r1	! 60191e0 <_SPR_2ScaleSpr>
 6011fba:	41 0b       	jsr	@r1
 6011fbc:	00 09       	nop	
}
 6011fbe:	a1 28       	bra	6012212 <_Sprite_Draw+0x3e2>
 6011fc0:	00 09       	nop	
 6011fc2:	18 80       	mov.l	r8,@(0,r8)
 6011fc4:	00 80       	.word 0x0080
 6011fc6:	00 09       	nop	
 6011fc8:	00 01       	.word 0x0001
 6011fca:	00 00       	.word 0x0000
 6011fcc:	06 01       	.word 0x0601
 6011fce:	71 b8       	add	#-72,r1
 6011fd0:	00 00       	.word 0x0000
 6011fd2:	ff ff       	.word 0xffff
 6011fd4:	06 01       	.word 0x0601
 6011fd6:	91 14       	mov.w	6012002 <_Sprite_Draw+0x1d2>,r1	! 72fc
 6011fd8:	06 01       	.word 0x0601
 6011fda:	71 88       	add	#-120,r1
 6011fdc:	06 01       	.word 0x0601
 6011fde:	91 e0       	mov.w	60121a2 <_Sprite_Draw+0x372>,r1	! 410b
		xOffset = -(MTH_Mul(info->xSize >> 1, info->scale));
 6011fe0:	61 e3       	mov	r14,r1
 6011fe2:	71 fc       	add	#-4,r1
 6011fe4:	51 14       	mov.l	@(16,r1),r1
 6011fe6:	51 14       	mov.l	@(16,r1),r1
 6011fe8:	41 21       	shar	r1
 6011fea:	62 13       	mov	r1,r2
 6011fec:	61 e3       	mov	r14,r1
 6011fee:	71 fc       	add	#-4,r1
 6011ff0:	51 14       	mov.l	@(16,r1),r1
 6011ff2:	51 16       	mov.l	@(24,r1),r1
 6011ff4:	65 13       	mov	r1,r5
 6011ff6:	64 23       	mov	r2,r4
 6011ff8:	d1 8a       	mov.l	6012224 <_Sprite_Draw+0x3f4>,r1	! 6017188 <_MTH_Mul>
 6011ffa:	41 0b       	jsr	@r1
 6011ffc:	00 09       	nop	
 6011ffe:	61 03       	mov	r0,r1
 6012000:	62 e3       	mov	r14,r2
 6012002:	72 fc       	add	#-4,r2
 6012004:	61 1b       	neg	r1,r1
 6012006:	12 1f       	mov.l	r1,@(60,r2)
		yOffset = -(MTH_Mul(info->ySize >> 1, info->scale));
 6012008:	61 e3       	mov	r14,r1
 601200a:	71 fc       	add	#-4,r1
 601200c:	51 14       	mov.l	@(16,r1),r1
 601200e:	51 15       	mov.l	@(20,r1),r1
 6012010:	41 21       	shar	r1
 6012012:	62 13       	mov	r1,r2
 6012014:	61 e3       	mov	r14,r1
 6012016:	71 fc       	add	#-4,r1
 6012018:	51 14       	mov.l	@(16,r1),r1
 601201a:	51 16       	mov.l	@(24,r1),r1
 601201c:	65 13       	mov	r1,r5
 601201e:	64 23       	mov	r2,r4
 6012020:	d1 80       	mov.l	6012224 <_Sprite_Draw+0x3f4>,r1	! 6017188 <_MTH_Mul>
 6012022:	41 0b       	jsr	@r1
 6012024:	00 09       	nop	
 6012026:	61 03       	mov	r0,r1
 6012028:	62 e3       	mov	r14,r2
 601202a:	72 fc       	add	#-4,r2
 601202c:	61 1b       	neg	r1,r1
 601202e:	12 1e       	mov.l	r1,@(56,r2)
		sin = MTH_Sin(info->angle);
 6012030:	61 e3       	mov	r14,r1
 6012032:	71 fc       	add	#-4,r1
 6012034:	51 14       	mov.l	@(16,r1),r1
 6012036:	51 17       	mov.l	@(28,r1),r1
 6012038:	68 e3       	mov	r14,r8
 601203a:	78 fc       	add	#-4,r8
 601203c:	64 13       	mov	r1,r4
 601203e:	d1 7a       	mov.l	6012228 <_Sprite_Draw+0x3f8>,r1	! 6017200 <_MTH_Sin>
 6012040:	41 0b       	jsr	@r1
 6012042:	00 09       	nop	
 6012044:	61 03       	mov	r0,r1
 6012046:	18 1c       	mov.l	r1,@(48,r8)
		cos = MTH_Cos(info->angle);
 6012048:	61 e3       	mov	r14,r1
 601204a:	71 fc       	add	#-4,r1
 601204c:	51 14       	mov.l	@(16,r1),r1
 601204e:	51 17       	mov.l	@(28,r1),r1
 6012050:	68 e3       	mov	r14,r8
 6012052:	78 fc       	add	#-4,r8
 6012054:	64 13       	mov	r1,r4
 6012056:	d1 75       	mov.l	601222c <_Sprite_Draw+0x3fc>,r1	! 6017240 <_MTH_Cos>
 6012058:	41 0b       	jsr	@r1
 601205a:	00 09       	nop	
 601205c:	61 03       	mov	r0,r1
 601205e:	18 1b       	mov.l	r1,@(44,r8)
		scaledX = info->x + MTH_Mul(info->xSize >> 1, info->scale);
 6012060:	61 e3       	mov	r14,r1
 6012062:	71 fc       	add	#-4,r1
 6012064:	51 14       	mov.l	@(16,r1),r1
 6012066:	58 12       	mov.l	@(8,r1),r8
 6012068:	61 e3       	mov	r14,r1
 601206a:	71 fc       	add	#-4,r1
 601206c:	51 14       	mov.l	@(16,r1),r1
 601206e:	51 14       	mov.l	@(16,r1),r1
 6012070:	41 21       	shar	r1
 6012072:	62 13       	mov	r1,r2
 6012074:	61 e3       	mov	r14,r1
 6012076:	71 fc       	add	#-4,r1
 6012078:	51 14       	mov.l	@(16,r1),r1
 601207a:	51 16       	mov.l	@(24,r1),r1
 601207c:	65 13       	mov	r1,r5
 601207e:	64 23       	mov	r2,r4
 6012080:	d1 68       	mov.l	6012224 <_Sprite_Draw+0x3f4>,r1	! 6017188 <_MTH_Mul>
 6012082:	41 0b       	jsr	@r1
 6012084:	00 09       	nop	
 6012086:	61 03       	mov	r0,r1
 6012088:	62 e3       	mov	r14,r2
 601208a:	72 fc       	add	#-4,r2
 601208c:	31 8c       	add	r8,r1
 601208e:	12 1a       	mov.l	r1,@(40,r2)
		scaledY = info->y + MTH_Mul(info->ySize >> 1, info->scale);
 6012090:	61 e3       	mov	r14,r1
 6012092:	71 fc       	add	#-4,r1
 6012094:	51 14       	mov.l	@(16,r1),r1
 6012096:	58 13       	mov.l	@(12,r1),r8
 6012098:	61 e3       	mov	r14,r1
 601209a:	71 fc       	add	#-4,r1
 601209c:	51 14       	mov.l	@(16,r1),r1
 601209e:	51 15       	mov.l	@(20,r1),r1
 60120a0:	41 21       	shar	r1
 60120a2:	62 13       	mov	r1,r2
 60120a4:	61 e3       	mov	r14,r1
 60120a6:	71 fc       	add	#-4,r1
 60120a8:	51 14       	mov.l	@(16,r1),r1
 60120aa:	51 16       	mov.l	@(24,r1),r1
 60120ac:	65 13       	mov	r1,r5
 60120ae:	64 23       	mov	r2,r4
 60120b0:	d1 5c       	mov.l	6012224 <_Sprite_Draw+0x3f4>,r1	! 6017188 <_MTH_Mul>
 60120b2:	41 0b       	jsr	@r1
 60120b4:	00 09       	nop	
 60120b6:	61 03       	mov	r0,r1
 60120b8:	62 e3       	mov	r14,r2
 60120ba:	72 fc       	add	#-4,r2
 60120bc:	31 8c       	add	r8,r1
 60120be:	12 19       	mov.l	r1,@(36,r2)
		for (int i = 0; i < 4; i++) {
 60120c0:	61 e3       	mov	r14,r1
 60120c2:	71 fc       	add	#-4,r1
 60120c4:	e2 00       	mov	#0,r2
 60120c6:	11 2d       	mov.l	r2,@(52,r1)
 60120c8:	a0 7f       	bra	60121ca <_Sprite_Draw+0x39a>
 60120ca:	00 09       	nop	
			if (i == 1) xOffset = -xOffset; //upper right
 60120cc:	61 e3       	mov	r14,r1
 60120ce:	71 fc       	add	#-4,r1
 60120d0:	52 1d       	mov.l	@(52,r1),r2
 60120d2:	e1 01       	mov	#1,r1
 60120d4:	32 10       	cmp/eq	r1,r2
 60120d6:	8b 06       	bf	60120e6 <_Sprite_Draw+0x2b6>
 60120d8:	61 e3       	mov	r14,r1
 60120da:	71 fc       	add	#-4,r1
 60120dc:	62 e3       	mov	r14,r2
 60120de:	72 fc       	add	#-4,r2
 60120e0:	52 2f       	mov.l	@(60,r2),r2
 60120e2:	62 2b       	neg	r2,r2
 60120e4:	11 2f       	mov.l	r2,@(60,r1)
			if (i == 2) yOffset = -yOffset; //lower right
 60120e6:	61 e3       	mov	r14,r1
 60120e8:	71 fc       	add	#-4,r1
 60120ea:	52 1d       	mov.l	@(52,r1),r2
 60120ec:	e1 02       	mov	#2,r1
 60120ee:	32 10       	cmp/eq	r1,r2
 60120f0:	8b 06       	bf	6012100 <_Sprite_Draw+0x2d0>
 60120f2:	61 e3       	mov	r14,r1
 60120f4:	71 fc       	add	#-4,r1
 60120f6:	62 e3       	mov	r14,r2
 60120f8:	72 fc       	add	#-4,r2
 60120fa:	52 2e       	mov.l	@(56,r2),r2
 60120fc:	62 2b       	neg	r2,r2
 60120fe:	11 2e       	mov.l	r2,@(56,r1)
			if (i == 3) xOffset = -xOffset; //lower left
 6012100:	61 e3       	mov	r14,r1
 6012102:	71 fc       	add	#-4,r1
 6012104:	52 1d       	mov.l	@(52,r1),r2
 6012106:	e1 03       	mov	#3,r1
 6012108:	32 10       	cmp/eq	r1,r2
 601210a:	8b 06       	bf	601211a <_Sprite_Draw+0x2ea>
 601210c:	61 e3       	mov	r14,r1
 601210e:	71 fc       	add	#-4,r1
 6012110:	62 e3       	mov	r14,r2
 6012112:	72 fc       	add	#-4,r2
 6012114:	52 2f       	mov.l	@(60,r2),r2
 6012116:	62 2b       	neg	r2,r2
 6012118:	11 2f       	mov.l	r2,@(60,r1)
			xy[i].x = (Sint16)MTH_FixedToInt(MTH_Mul(xOffset, cos) - 
 601211a:	62 e3       	mov	r14,r2
 601211c:	72 fc       	add	#-4,r2
 601211e:	61 e3       	mov	r14,r1
 6012120:	71 fc       	add	#-4,r1
 6012122:	55 2b       	mov.l	@(44,r2),r5
 6012124:	54 1f       	mov.l	@(60,r1),r4
 6012126:	d1 3f       	mov.l	6012224 <_Sprite_Draw+0x3f4>,r1	! 6017188 <_MTH_Mul>
 6012128:	41 0b       	jsr	@r1
 601212a:	00 09       	nop	
 601212c:	68 03       	mov	r0,r8
				MTH_Mul(yOffset, sin) + scaledX);
 601212e:	62 e3       	mov	r14,r2
 6012130:	72 fc       	add	#-4,r2
 6012132:	61 e3       	mov	r14,r1
 6012134:	71 fc       	add	#-4,r1
 6012136:	55 2c       	mov.l	@(48,r2),r5
 6012138:	54 1e       	mov.l	@(56,r1),r4
 601213a:	d1 3a       	mov.l	6012224 <_Sprite_Draw+0x3f4>,r1	! 6017188 <_MTH_Mul>
 601213c:	41 0b       	jsr	@r1
 601213e:	00 09       	nop	
 6012140:	61 03       	mov	r0,r1
			xy[i].x = (Sint16)MTH_FixedToInt(MTH_Mul(xOffset, cos) - 
 6012142:	62 83       	mov	r8,r2
 6012144:	32 18       	sub	r1,r2
 6012146:	61 e3       	mov	r14,r1
 6012148:	71 fc       	add	#-4,r1
 601214a:	51 1a       	mov.l	@(40,r1),r1
 601214c:	31 2c       	add	r2,r1
 601214e:	64 13       	mov	r1,r4
 6012150:	d1 37       	mov.l	6012230 <_Sprite_Draw+0x400>,r1	! 60171b8 <_MTH_FixedToInt>
 6012152:	41 0b       	jsr	@r1
 6012154:	00 09       	nop	
 6012156:	61 03       	mov	r0,r1
 6012158:	62 1f       	exts.w	r1,r2
 601215a:	63 e3       	mov	r14,r3
 601215c:	73 10       	add	#16,r3
 601215e:	61 e3       	mov	r14,r1
 6012160:	71 fc       	add	#-4,r1
 6012162:	51 1d       	mov.l	@(52,r1),r1
 6012164:	41 08       	shll2	r1
 6012166:	31 3c       	add	r3,r1
 6012168:	21 21       	mov.w	r2,@r1
			xy[i].y = (Sint16)MTH_FixedToInt(MTH_Mul(xOffset, sin) +
 601216a:	62 e3       	mov	r14,r2
 601216c:	72 fc       	add	#-4,r2
 601216e:	61 e3       	mov	r14,r1
 6012170:	71 fc       	add	#-4,r1
 6012172:	55 2c       	mov.l	@(48,r2),r5
 6012174:	54 1f       	mov.l	@(60,r1),r4
 6012176:	d1 2b       	mov.l	6012224 <_Sprite_Draw+0x3f4>,r1	! 6017188 <_MTH_Mul>
 6012178:	41 0b       	jsr	@r1
 601217a:	00 09       	nop	
 601217c:	68 03       	mov	r0,r8
				MTH_Mul(yOffset, cos) + scaledY);
 601217e:	62 e3       	mov	r14,r2
 6012180:	72 fc       	add	#-4,r2
 6012182:	61 e3       	mov	r14,r1
 6012184:	71 fc       	add	#-4,r1
 6012186:	55 2b       	mov.l	@(44,r2),r5
 6012188:	54 1e       	mov.l	@(56,r1),r4
 601218a:	d1 26       	mov.l	6012224 <_Sprite_Draw+0x3f4>,r1	! 6017188 <_MTH_Mul>
 601218c:	41 0b       	jsr	@r1
 601218e:	00 09       	nop	
 6012190:	61 03       	mov	r0,r1
			xy[i].y = (Sint16)MTH_FixedToInt(MTH_Mul(xOffset, sin) +
 6012192:	62 83       	mov	r8,r2
 6012194:	32 1c       	add	r1,r2
 6012196:	61 e3       	mov	r14,r1
 6012198:	71 fc       	add	#-4,r1
 601219a:	51 19       	mov.l	@(36,r1),r1
 601219c:	31 2c       	add	r2,r1
 601219e:	64 13       	mov	r1,r4
 60121a0:	d1 23       	mov.l	6012230 <_Sprite_Draw+0x400>,r1	! 60171b8 <_MTH_FixedToInt>
 60121a2:	41 0b       	jsr	@r1
 60121a4:	00 09       	nop	
 60121a6:	61 03       	mov	r0,r1
 60121a8:	62 1f       	exts.w	r1,r2
 60121aa:	63 e3       	mov	r14,r3
 60121ac:	73 10       	add	#16,r3
 60121ae:	61 e3       	mov	r14,r1
 60121b0:	71 fc       	add	#-4,r1
 60121b2:	51 1d       	mov.l	@(52,r1),r1
 60121b4:	41 08       	shll2	r1
 60121b6:	31 3c       	add	r3,r1
 60121b8:	71 02       	add	#2,r1
 60121ba:	21 21       	mov.w	r2,@r1
		for (int i = 0; i < 4; i++) {
 60121bc:	61 e3       	mov	r14,r1
 60121be:	71 fc       	add	#-4,r1
 60121c0:	62 e3       	mov	r14,r2
 60121c2:	72 fc       	add	#-4,r2
 60121c4:	52 2d       	mov.l	@(52,r2),r2
 60121c6:	72 01       	add	#1,r2
 60121c8:	11 2d       	mov.l	r2,@(52,r1)
 60121ca:	61 e3       	mov	r14,r1
 60121cc:	71 fc       	add	#-4,r1
 60121ce:	52 1d       	mov.l	@(52,r1),r2
 60121d0:	e1 03       	mov	#3,r1
 60121d2:	32 17       	cmp/gt	r1,r2
 60121d4:	89 01       	bt	60121da <_Sprite_Draw+0x3aa>
 60121d6:	af 79       	bra	60120cc <_Sprite_Draw+0x29c>
 60121d8:	00 09       	nop	
		SPR_2DistSpr(0, info->mirror, ENDCODE_DISABLE, 0xffff, info->charNum, xy, NO_GOUR); //4bpp distorted sprite
 60121da:	61 e3       	mov	r14,r1
 60121dc:	71 fc       	add	#-4,r1
 60121de:	51 14       	mov.l	@(16,r1),r1
 60121e0:	71 20       	add	#32,r1
 60121e2:	61 11       	mov.w	@r1,r1
 60121e4:	61 1d       	extu.w	r1,r1
 60121e6:	65 13       	mov	r1,r5
 60121e8:	61 e3       	mov	r14,r1
 60121ea:	71 fc       	add	#-4,r1
 60121ec:	51 14       	mov.l	@(16,r1),r1
 60121ee:	85 11       	mov.w	@(2,r1),r0
 60121f0:	61 03       	mov	r0,r1
 60121f2:	61 1d       	extu.w	r1,r1
 60121f4:	67 13       	mov	r1,r7
 60121f6:	d3 0f       	mov.l	6012234 <_Sprite_Draw+0x404>,r3	! ffff
 60121f8:	92 13       	mov.w	6012222 <_Sprite_Draw+0x3f2>,r2	! 80
 60121fa:	d1 0e       	mov.l	6012234 <_Sprite_Draw+0x404>,r1	! ffff
 60121fc:	1f 12       	mov.l	r1,@(8,r15)
 60121fe:	61 e3       	mov	r14,r1
 6012200:	71 10       	add	#16,r1
 6012202:	1f 11       	mov.l	r1,@(4,r15)
 6012204:	2f 72       	mov.l	r7,@r15
 6012206:	67 33       	mov	r3,r7
 6012208:	66 23       	mov	r2,r6
 601220a:	e4 00       	mov	#0,r4
 601220c:	d1 0a       	mov.l	6012238 <_Sprite_Draw+0x408>,r1	! 60192c8 <_SPR_2DistSpr>
 601220e:	41 0b       	jsr	@r1
 6012210:	00 09       	nop	
}
 6012212:	00 09       	nop	
 6012214:	7e 3c       	add	#60,r14
 6012216:	6f e3       	mov	r14,r15
 6012218:	4f 26       	lds.l	@r15+,pr
 601221a:	6e f6       	mov.l	@r15+,r14
 601221c:	68 f6       	mov.l	@r15+,r8
 601221e:	00 0b       	rts	
 6012220:	00 09       	nop	
 6012222:	00 80       	.word 0x0080
 6012224:	06 01       	.word 0x0601
 6012226:	71 88       	add	#-120,r1
 6012228:	06 01       	.word 0x0601
 601222a:	72 00       	add	#0,r2
 601222c:	06 01       	.word 0x0601
 601222e:	72 40       	add	#64,r2
 6012230:	06 01       	.word 0x0601
 6012232:	71 b8       	add	#-72,r1
 6012234:	00 00       	.word 0x0000
 6012236:	ff ff       	.word 0xffff
 6012238:	06 01       	.word 0x0601
 601223a:	92 c8       	mov.w	60123ce <_Sprite_DrawAll+0xda>,r2	! 6ef6

0601223c <_Sprite_Make>:

void Sprite_Make(int tileNum, Fixed32 x, Fixed32 y, SPRITE_INFO *ptr) {
 601223c:	2f e6       	mov.l	r14,@-r15
 601223e:	7f f0       	add	#-16,r15
 6012240:	6e f3       	mov	r15,r14
 6012242:	61 e3       	mov	r14,r1
 6012244:	71 d0       	add	#-48,r1
 6012246:	11 4f       	mov.l	r4,@(60,r1)
 6012248:	61 e3       	mov	r14,r1
 601224a:	71 d0       	add	#-48,r1
 601224c:	11 5e       	mov.l	r5,@(56,r1)
 601224e:	61 e3       	mov	r14,r1
 6012250:	71 d0       	add	#-48,r1
 6012252:	11 6d       	mov.l	r6,@(52,r1)
 6012254:	61 e3       	mov	r14,r1
 6012256:	71 d0       	add	#-48,r1
 6012258:	11 7c       	mov.l	r7,@(48,r1)
	ptr->display = 1;
 601225a:	61 e3       	mov	r14,r1
 601225c:	71 d0       	add	#-48,r1
 601225e:	51 1c       	mov.l	@(48,r1),r1
 6012260:	e2 01       	mov	#1,r2
 6012262:	21 21       	mov.w	r2,@r1
	ptr->charNum = tileNum;
 6012264:	61 e3       	mov	r14,r1
 6012266:	71 d0       	add	#-48,r1
 6012268:	51 1f       	mov.l	@(60,r1),r1
 601226a:	62 1d       	extu.w	r1,r2
 601226c:	61 e3       	mov	r14,r1
 601226e:	71 d0       	add	#-48,r1
 6012270:	51 1c       	mov.l	@(48,r1),r1
 6012272:	60 23       	mov	r2,r0
 6012274:	81 11       	mov.w	r0,@(2,r1)
	ptr->x = x;
 6012276:	61 e3       	mov	r14,r1
 6012278:	71 d0       	add	#-48,r1
 601227a:	51 1c       	mov.l	@(48,r1),r1
 601227c:	62 e3       	mov	r14,r2
 601227e:	72 d0       	add	#-48,r2
 6012280:	52 2e       	mov.l	@(56,r2),r2
 6012282:	11 22       	mov.l	r2,@(8,r1)
	ptr->y = y;
 6012284:	61 e3       	mov	r14,r1
 6012286:	71 d0       	add	#-48,r1
 6012288:	51 1c       	mov.l	@(48,r1),r1
 601228a:	62 e3       	mov	r14,r2
 601228c:	72 d0       	add	#-48,r2
 601228e:	52 2d       	mov.l	@(52,r2),r2
 6012290:	11 23       	mov.l	r2,@(12,r1)
	ptr->xSize = 0;
 6012292:	61 e3       	mov	r14,r1
 6012294:	71 d0       	add	#-48,r1
 6012296:	51 1c       	mov.l	@(48,r1),r1
 6012298:	e2 00       	mov	#0,r2
 601229a:	11 24       	mov.l	r2,@(16,r1)
	ptr->ySize = 0;
 601229c:	61 e3       	mov	r14,r1
 601229e:	71 d0       	add	#-48,r1
 60122a0:	51 1c       	mov.l	@(48,r1),r1
 60122a2:	e2 00       	mov	#0,r2
 60122a4:	11 25       	mov.l	r2,@(20,r1)
	ptr->mirror = 0;
 60122a6:	61 e3       	mov	r14,r1
 60122a8:	71 d0       	add	#-48,r1
 60122aa:	51 1c       	mov.l	@(48,r1),r1
 60122ac:	71 20       	add	#32,r1
 60122ae:	e2 00       	mov	#0,r2
 60122b0:	21 21       	mov.w	r2,@r1
	ptr->scale = MTH_FIXED(1);
 60122b2:	61 e3       	mov	r14,r1
 60122b4:	71 d0       	add	#-48,r1
 60122b6:	51 1c       	mov.l	@(48,r1),r1
 60122b8:	d2 0d       	mov.l	60122f0 <_Sprite_Make+0xb4>,r2	! 10000
 60122ba:	11 26       	mov.l	r2,@(24,r1)
	ptr->angle = 0;
 60122bc:	61 e3       	mov	r14,r1
 60122be:	71 d0       	add	#-48,r1
 60122c0:	51 1c       	mov.l	@(48,r1),r1
 60122c2:	e2 00       	mov	#0,r2
 60122c4:	11 27       	mov.l	r2,@(28,r1)
	ptr->prev = NULL;
 60122c6:	61 e3       	mov	r14,r1
 60122c8:	71 d0       	add	#-48,r1
 60122ca:	51 1c       	mov.l	@(48,r1),r1
 60122cc:	e2 00       	mov	#0,r2
 60122ce:	11 29       	mov.l	r2,@(36,r1)
	ptr->next = NULL;
 60122d0:	61 e3       	mov	r14,r1
 60122d2:	71 d0       	add	#-48,r1
 60122d4:	51 1c       	mov.l	@(48,r1),r1
 60122d6:	e2 00       	mov	#0,r2
 60122d8:	11 2a       	mov.l	r2,@(40,r1)
	ptr->iterate = NULL;
 60122da:	61 e3       	mov	r14,r1
 60122dc:	71 d0       	add	#-48,r1
 60122de:	51 1c       	mov.l	@(48,r1),r1
 60122e0:	e2 00       	mov	#0,r2
 60122e2:	11 2e       	mov.l	r2,@(56,r1)
}
 60122e4:	00 09       	nop	
 60122e6:	7e 10       	add	#16,r14
 60122e8:	6f e3       	mov	r14,r15
 60122ea:	6e f6       	mov.l	@r15+,r14
 60122ec:	00 0b       	rts	
 60122ee:	00 09       	nop	
 60122f0:	00 01       	.word 0x0001
	...

060122f4 <_Sprite_DrawAll>:

void Sprite_DrawAll() {
 60122f4:	2f e6       	mov.l	r14,@-r15
 60122f6:	4f 22       	sts.l	pr,@-r15
 60122f8:	7f fc       	add	#-4,r15
 60122fa:	6e f3       	mov	r15,r14
	for (int i = 0; i < SPRITE_LIST_SIZE; i++) {
 60122fc:	61 e3       	mov	r14,r1
 60122fe:	71 c4       	add	#-60,r1
 6012300:	e2 00       	mov	#0,r2
 6012302:	11 2f       	mov.l	r2,@(60,r1)
 6012304:	a0 58       	bra	60123b8 <_Sprite_DrawAll+0xc4>
 6012306:	00 09       	nop	
		if (sprites[i].display) {
 6012308:	d3 32       	mov.l	60123d4 <_Sprite_DrawAll+0xe0>,r3	! 6021d84 <_sprites>
 601230a:	61 e3       	mov	r14,r1
 601230c:	71 c4       	add	#-60,r1
 601230e:	52 1f       	mov.l	@(60,r1),r2
 6012310:	61 23       	mov	r2,r1
 6012312:	41 08       	shll2	r1
 6012314:	41 08       	shll2	r1
 6012316:	31 28       	sub	r2,r1
 6012318:	41 08       	shll2	r1
 601231a:	31 3c       	add	r3,r1
 601231c:	61 11       	mov.w	@r1,r1
 601231e:	61 1d       	extu.w	r1,r1
 6012320:	21 18       	tst	r1,r1
 6012322:	89 42       	bt	60123aa <_Sprite_DrawAll+0xb6>
			if (sprites[i].iterate != NULL) {
 6012324:	d3 2b       	mov.l	60123d4 <_Sprite_DrawAll+0xe0>,r3	! 6021d84 <_sprites>
 6012326:	61 e3       	mov	r14,r1
 6012328:	71 c4       	add	#-60,r1
 601232a:	52 1f       	mov.l	@(60,r1),r2
 601232c:	61 23       	mov	r2,r1
 601232e:	41 08       	shll2	r1
 6012330:	41 08       	shll2	r1
 6012332:	31 28       	sub	r2,r1
 6012334:	41 08       	shll2	r1
 6012336:	31 3c       	add	r3,r1
 6012338:	71 38       	add	#56,r1
 601233a:	61 12       	mov.l	@r1,r1
 601233c:	21 18       	tst	r1,r1
 601233e:	89 18       	bt	6012372 <_Sprite_DrawAll+0x7e>
				sprites[i].iterate(&sprites[i]);
 6012340:	d3 24       	mov.l	60123d4 <_Sprite_DrawAll+0xe0>,r3	! 6021d84 <_sprites>
 6012342:	61 e3       	mov	r14,r1
 6012344:	71 c4       	add	#-60,r1
 6012346:	52 1f       	mov.l	@(60,r1),r2
 6012348:	61 23       	mov	r2,r1
 601234a:	41 08       	shll2	r1
 601234c:	41 08       	shll2	r1
 601234e:	31 28       	sub	r2,r1
 6012350:	41 08       	shll2	r1
 6012352:	31 3c       	add	r3,r1
 6012354:	71 38       	add	#56,r1
 6012356:	63 12       	mov.l	@r1,r3
 6012358:	61 e3       	mov	r14,r1
 601235a:	71 c4       	add	#-60,r1
 601235c:	52 1f       	mov.l	@(60,r1),r2
 601235e:	61 23       	mov	r2,r1
 6012360:	41 08       	shll2	r1
 6012362:	41 08       	shll2	r1
 6012364:	31 28       	sub	r2,r1
 6012366:	41 08       	shll2	r1
 6012368:	d2 1a       	mov.l	60123d4 <_Sprite_DrawAll+0xe0>,r2	! 6021d84 <_sprites>
 601236a:	31 2c       	add	r2,r1
 601236c:	64 13       	mov	r1,r4
 601236e:	43 0b       	jsr	@r3
 6012370:	00 09       	nop	
			}
			//check again because iterate function may have deleted sprite
			if (sprites[i].display) {
 6012372:	d3 18       	mov.l	60123d4 <_Sprite_DrawAll+0xe0>,r3	! 6021d84 <_sprites>
 6012374:	61 e3       	mov	r14,r1
 6012376:	71 c4       	add	#-60,r1
 6012378:	52 1f       	mov.l	@(60,r1),r2
 601237a:	61 23       	mov	r2,r1
 601237c:	41 08       	shll2	r1
 601237e:	41 08       	shll2	r1
 6012380:	31 28       	sub	r2,r1
 6012382:	41 08       	shll2	r1
 6012384:	31 3c       	add	r3,r1
 6012386:	61 11       	mov.w	@r1,r1
 6012388:	61 1d       	extu.w	r1,r1
 601238a:	21 18       	tst	r1,r1
 601238c:	89 0d       	bt	60123aa <_Sprite_DrawAll+0xb6>
				Sprite_Draw(&sprites[i]);
 601238e:	61 e3       	mov	r14,r1
 6012390:	71 c4       	add	#-60,r1
 6012392:	52 1f       	mov.l	@(60,r1),r2
 6012394:	61 23       	mov	r2,r1
 6012396:	41 08       	shll2	r1
 6012398:	41 08       	shll2	r1
 601239a:	31 28       	sub	r2,r1
 601239c:	41 08       	shll2	r1
 601239e:	d2 0d       	mov.l	60123d4 <_Sprite_DrawAll+0xe0>,r2	! 6021d84 <_sprites>
 60123a0:	31 2c       	add	r2,r1
 60123a2:	64 13       	mov	r1,r4
 60123a4:	d1 0c       	mov.l	60123d8 <_Sprite_DrawAll+0xe4>,r1	! 6011e30 <_Sprite_Draw>
 60123a6:	41 0b       	jsr	@r1
 60123a8:	00 09       	nop	
	for (int i = 0; i < SPRITE_LIST_SIZE; i++) {
 60123aa:	61 e3       	mov	r14,r1
 60123ac:	71 c4       	add	#-60,r1
 60123ae:	62 e3       	mov	r14,r2
 60123b0:	72 c4       	add	#-60,r2
 60123b2:	52 2f       	mov.l	@(60,r2),r2
 60123b4:	72 01       	add	#1,r2
 60123b6:	11 2f       	mov.l	r2,@(60,r1)
 60123b8:	61 e3       	mov	r14,r1
 60123ba:	71 c4       	add	#-60,r1
 60123bc:	52 1f       	mov.l	@(60,r1),r2
 60123be:	e1 4f       	mov	#79,r1
 60123c0:	32 17       	cmp/gt	r1,r2
 60123c2:	8b a1       	bf	6012308 <_Sprite_DrawAll+0x14>
			}
		}
	}
}
 60123c4:	00 09       	nop	
 60123c6:	00 09       	nop	
 60123c8:	7e 04       	add	#4,r14
 60123ca:	6f e3       	mov	r14,r15
 60123cc:	4f 26       	lds.l	@r15+,pr
 60123ce:	6e f6       	mov.l	@r15+,r14
 60123d0:	00 0b       	rts	
 60123d2:	00 09       	nop	
 60123d4:	06 02       	stc	sr,r6
 60123d6:	1d 84       	mov.l	r8,@(16,r13)
 60123d8:	06 01       	.word 0x0601
 60123da:	1e 30       	mov.l	r3,@(0,r14)

060123dc <_Sprite_Next>:

SPRITE_INFO *Sprite_Next() {
 60123dc:	2f e6       	mov.l	r14,@-r15
 60123de:	7f fc       	add	#-4,r15
 60123e0:	6e f3       	mov	r15,r14
	int i;
	for (i = 0; i < SPRITE_LIST_SIZE; i++) {
 60123e2:	61 e3       	mov	r14,r1
 60123e4:	71 c4       	add	#-60,r1
 60123e6:	e2 00       	mov	#0,r2
 60123e8:	11 2f       	mov.l	r2,@(60,r1)
 60123ea:	a0 44       	bra	6012476 <_Sprite_Next+0x9a>
 60123ec:	00 09       	nop	
		if (!sprites[i].display) {
 60123ee:	d3 28       	mov.l	6012490 <_Sprite_Next+0xb4>,r3	! 6021d84 <_sprites>
 60123f0:	61 e3       	mov	r14,r1
 60123f2:	71 c4       	add	#-60,r1
 60123f4:	52 1f       	mov.l	@(60,r1),r2
 60123f6:	61 23       	mov	r2,r1
 60123f8:	41 08       	shll2	r1
 60123fa:	41 08       	shll2	r1
 60123fc:	31 28       	sub	r2,r1
 60123fe:	41 08       	shll2	r1
 6012400:	31 3c       	add	r3,r1
 6012402:	61 11       	mov.w	@r1,r1
 6012404:	61 1d       	extu.w	r1,r1
 6012406:	21 18       	tst	r1,r1
 6012408:	8b 2e       	bf	6012468 <_Sprite_Next+0x8c>
			numSprites++;
 601240a:	d1 22       	mov.l	6012494 <_Sprite_Next+0xb8>,r1	! 6021d78 <_numSprites>
 601240c:	61 12       	mov.l	@r1,r1
 601240e:	62 13       	mov	r1,r2
 6012410:	72 01       	add	#1,r2
 6012412:	d1 20       	mov.l	6012494 <_Sprite_Next+0xb8>,r1	! 6021d78 <_numSprites>
 6012414:	21 22       	mov.l	r2,@r1
			sprites[i].index = i;
 6012416:	61 e3       	mov	r14,r1
 6012418:	71 c4       	add	#-60,r1
 601241a:	51 1f       	mov.l	@(60,r1),r1
 601241c:	63 1d       	extu.w	r1,r3
 601241e:	d7 1c       	mov.l	6012490 <_Sprite_Next+0xb4>,r7	! 6021d84 <_sprites>
 6012420:	61 e3       	mov	r14,r1
 6012422:	71 c4       	add	#-60,r1
 6012424:	52 1f       	mov.l	@(60,r1),r2
 6012426:	61 23       	mov	r2,r1
 6012428:	41 08       	shll2	r1
 601242a:	41 08       	shll2	r1
 601242c:	31 28       	sub	r2,r1
 601242e:	41 08       	shll2	r1
 6012430:	31 7c       	add	r7,r1
 6012432:	71 04       	add	#4,r1
 6012434:	21 31       	mov.w	r3,@r1
			sprites[i].iterate = NULL;
 6012436:	d3 16       	mov.l	6012490 <_Sprite_Next+0xb4>,r3	! 6021d84 <_sprites>
 6012438:	61 e3       	mov	r14,r1
 601243a:	71 c4       	add	#-60,r1
 601243c:	52 1f       	mov.l	@(60,r1),r2
 601243e:	61 23       	mov	r2,r1
 6012440:	41 08       	shll2	r1
 6012442:	41 08       	shll2	r1
 6012444:	31 28       	sub	r2,r1
 6012446:	41 08       	shll2	r1
 6012448:	31 3c       	add	r3,r1
 601244a:	71 38       	add	#56,r1
 601244c:	e2 00       	mov	#0,r2
 601244e:	21 22       	mov.l	r2,@r1
			return &sprites[i];
 6012450:	61 e3       	mov	r14,r1
 6012452:	71 c4       	add	#-60,r1
 6012454:	52 1f       	mov.l	@(60,r1),r2
 6012456:	61 23       	mov	r2,r1
 6012458:	41 08       	shll2	r1
 601245a:	41 08       	shll2	r1
 601245c:	31 28       	sub	r2,r1
 601245e:	41 08       	shll2	r1
 6012460:	d2 0b       	mov.l	6012490 <_Sprite_Next+0xb4>,r2	! 6021d84 <_sprites>
 6012462:	31 2c       	add	r2,r1
 6012464:	a0 0e       	bra	6012484 <_Sprite_Next+0xa8>
 6012466:	00 09       	nop	
	for (i = 0; i < SPRITE_LIST_SIZE; i++) {
 6012468:	61 e3       	mov	r14,r1
 601246a:	71 c4       	add	#-60,r1
 601246c:	62 e3       	mov	r14,r2
 601246e:	72 c4       	add	#-60,r2
 6012470:	52 2f       	mov.l	@(60,r2),r2
 6012472:	72 01       	add	#1,r2
 6012474:	11 2f       	mov.l	r2,@(60,r1)
 6012476:	61 e3       	mov	r14,r1
 6012478:	71 c4       	add	#-60,r1
 601247a:	52 1f       	mov.l	@(60,r1),r2
 601247c:	e1 4f       	mov	#79,r1
 601247e:	32 17       	cmp/gt	r1,r2
 6012480:	8b b5       	bf	60123ee <_Sprite_Next+0x12>
		}
	}
	return NULL;
 6012482:	e1 00       	mov	#0,r1
}
 6012484:	60 13       	mov	r1,r0
 6012486:	7e 04       	add	#4,r14
 6012488:	6f e3       	mov	r14,r15
 601248a:	6e f6       	mov.l	@r15+,r14
 601248c:	00 0b       	rts	
 601248e:	00 09       	nop	
 6012490:	06 02       	stc	sr,r6
 6012492:	1d 84       	mov.l	r8,@(16,r13)
 6012494:	06 02       	stc	sr,r6
 6012496:	1d 78       	mov.l	r7,@(32,r13)

06012498 <_Sprite_ListAdd>:

void Sprite_ListAdd(SPRITE_INFO **head, SPRITE_INFO *sprite) {
 6012498:	2f e6       	mov.l	r14,@-r15
 601249a:	7f f8       	add	#-8,r15
 601249c:	6e f3       	mov	r15,r14
 601249e:	61 e3       	mov	r14,r1
 60124a0:	71 c8       	add	#-56,r1
 60124a2:	11 4f       	mov.l	r4,@(60,r1)
 60124a4:	61 e3       	mov	r14,r1
 60124a6:	71 c8       	add	#-56,r1
 60124a8:	11 5e       	mov.l	r5,@(56,r1)
	sprite->next = *head;
 60124aa:	61 e3       	mov	r14,r1
 60124ac:	71 c8       	add	#-56,r1
 60124ae:	51 1f       	mov.l	@(60,r1),r1
 60124b0:	62 12       	mov.l	@r1,r2
 60124b2:	61 e3       	mov	r14,r1
 60124b4:	71 c8       	add	#-56,r1
 60124b6:	51 1e       	mov.l	@(56,r1),r1
 60124b8:	11 2a       	mov.l	r2,@(40,r1)
	sprite->prev = NULL;
 60124ba:	61 e3       	mov	r14,r1
 60124bc:	71 c8       	add	#-56,r1
 60124be:	51 1e       	mov.l	@(56,r1),r1
 60124c0:	e2 00       	mov	#0,r2
 60124c2:	11 29       	mov.l	r2,@(36,r1)
	if (*head != NULL) {
 60124c4:	61 e3       	mov	r14,r1
 60124c6:	71 c8       	add	#-56,r1
 60124c8:	51 1f       	mov.l	@(60,r1),r1
 60124ca:	61 12       	mov.l	@r1,r1
 60124cc:	21 18       	tst	r1,r1
 60124ce:	89 07       	bt	60124e0 <_Sprite_ListAdd+0x48>
		(*head)->prev = sprite;
 60124d0:	61 e3       	mov	r14,r1
 60124d2:	71 c8       	add	#-56,r1
 60124d4:	51 1f       	mov.l	@(60,r1),r1
 60124d6:	61 12       	mov.l	@r1,r1
 60124d8:	62 e3       	mov	r14,r2
 60124da:	72 c8       	add	#-56,r2
 60124dc:	52 2e       	mov.l	@(56,r2),r2
 60124de:	11 29       	mov.l	r2,@(36,r1)
	}
	*head = sprite;
 60124e0:	61 e3       	mov	r14,r1
 60124e2:	71 c8       	add	#-56,r1
 60124e4:	51 1f       	mov.l	@(60,r1),r1
 60124e6:	62 e3       	mov	r14,r2
 60124e8:	72 c8       	add	#-56,r2
 60124ea:	52 2e       	mov.l	@(56,r2),r2
 60124ec:	21 22       	mov.l	r2,@r1
}
 60124ee:	00 09       	nop	
 60124f0:	7e 08       	add	#8,r14
 60124f2:	6f e3       	mov	r14,r15
 60124f4:	6e f6       	mov.l	@r15+,r14
 60124f6:	00 0b       	rts	
 60124f8:	00 09       	nop	

060124fa <_Sprite_ListRemove>:

void Sprite_ListRemove(SPRITE_INFO **head, SPRITE_INFO *sprite) {
 60124fa:	2f e6       	mov.l	r14,@-r15
 60124fc:	7f f8       	add	#-8,r15
 60124fe:	6e f3       	mov	r15,r14
 6012500:	61 e3       	mov	r14,r1
 6012502:	71 c8       	add	#-56,r1
 6012504:	11 4f       	mov.l	r4,@(60,r1)
 6012506:	61 e3       	mov	r14,r1
 6012508:	71 c8       	add	#-56,r1
 601250a:	11 5e       	mov.l	r5,@(56,r1)
	if (*head == sprite) {
 601250c:	61 e3       	mov	r14,r1
 601250e:	71 c8       	add	#-56,r1
 6012510:	51 1f       	mov.l	@(60,r1),r1
 6012512:	61 12       	mov.l	@r1,r1
 6012514:	62 e3       	mov	r14,r2
 6012516:	72 c8       	add	#-56,r2
 6012518:	52 2e       	mov.l	@(56,r2),r2
 601251a:	32 10       	cmp/eq	r1,r2
 601251c:	8b 07       	bf	601252e <_Sprite_ListRemove+0x34>
		*head = sprite->next;
 601251e:	61 e3       	mov	r14,r1
 6012520:	71 c8       	add	#-56,r1
 6012522:	51 1e       	mov.l	@(56,r1),r1
 6012524:	52 1a       	mov.l	@(40,r1),r2
 6012526:	61 e3       	mov	r14,r1
 6012528:	71 c8       	add	#-56,r1
 601252a:	51 1f       	mov.l	@(60,r1),r1
 601252c:	21 22       	mov.l	r2,@r1
	}

	if (sprite->next != NULL) {
 601252e:	61 e3       	mov	r14,r1
 6012530:	71 c8       	add	#-56,r1
 6012532:	51 1e       	mov.l	@(56,r1),r1
 6012534:	51 1a       	mov.l	@(40,r1),r1
 6012536:	21 18       	tst	r1,r1
 6012538:	89 08       	bt	601254c <_Sprite_ListRemove+0x52>
		sprite->next->prev = sprite->prev;
 601253a:	61 e3       	mov	r14,r1
 601253c:	71 c8       	add	#-56,r1
 601253e:	51 1e       	mov.l	@(56,r1),r1
 6012540:	51 1a       	mov.l	@(40,r1),r1
 6012542:	62 e3       	mov	r14,r2
 6012544:	72 c8       	add	#-56,r2
 6012546:	52 2e       	mov.l	@(56,r2),r2
 6012548:	52 29       	mov.l	@(36,r2),r2
 601254a:	11 29       	mov.l	r2,@(36,r1)
	}

	if (sprite->prev != NULL) {
 601254c:	61 e3       	mov	r14,r1
 601254e:	71 c8       	add	#-56,r1
 6012550:	51 1e       	mov.l	@(56,r1),r1
 6012552:	51 19       	mov.l	@(36,r1),r1
 6012554:	21 18       	tst	r1,r1
 6012556:	89 08       	bt	601256a <_Sprite_ListRemove+0x70>
		sprite->prev->next = sprite->next;
 6012558:	61 e3       	mov	r14,r1
 601255a:	71 c8       	add	#-56,r1
 601255c:	51 1e       	mov.l	@(56,r1),r1
 601255e:	51 19       	mov.l	@(36,r1),r1
 6012560:	62 e3       	mov	r14,r2
 6012562:	72 c8       	add	#-56,r2
 6012564:	52 2e       	mov.l	@(56,r2),r2
 6012566:	52 2a       	mov.l	@(40,r2),r2
 6012568:	11 2a       	mov.l	r2,@(40,r1)
	}
}
 601256a:	00 09       	nop	
 601256c:	7e 08       	add	#8,r14
 601256e:	6f e3       	mov	r14,r15
 6012570:	6e f6       	mov.l	@r15+,r14
 6012572:	00 0b       	rts	
 6012574:	00 09       	nop	

06012576 <_Sprite_Delete>:

void Sprite_Delete(SPRITE_INFO *sprite) {
 6012576:	2f e6       	mov.l	r14,@-r15
 6012578:	7f fc       	add	#-4,r15
 601257a:	6e f3       	mov	r15,r14
 601257c:	61 e3       	mov	r14,r1
 601257e:	71 c4       	add	#-60,r1
 6012580:	11 4f       	mov.l	r4,@(60,r1)
	sprite->display = 0;
 6012582:	61 e3       	mov	r14,r1
 6012584:	71 c4       	add	#-60,r1
 6012586:	51 1f       	mov.l	@(60,r1),r1
 6012588:	e2 00       	mov	#0,r2
 601258a:	21 21       	mov.w	r2,@r1
	sprite->iterate = NULL;
 601258c:	61 e3       	mov	r14,r1
 601258e:	71 c4       	add	#-60,r1
 6012590:	51 1f       	mov.l	@(60,r1),r1
 6012592:	e2 00       	mov	#0,r2
 6012594:	11 2e       	mov.l	r2,@(56,r1)
	numSprites--;
 6012596:	d1 06       	mov.l	60125b0 <_Sprite_Delete+0x3a>,r1	! 6021d78 <_numSprites>
 6012598:	61 12       	mov.l	@r1,r1
 601259a:	62 13       	mov	r1,r2
 601259c:	72 ff       	add	#-1,r2
 601259e:	d1 04       	mov.l	60125b0 <_Sprite_Delete+0x3a>,r1	! 6021d78 <_numSprites>
 60125a0:	21 22       	mov.l	r2,@r1
}
 60125a2:	00 09       	nop	
 60125a4:	7e 04       	add	#4,r14
 60125a6:	6f e3       	mov	r14,r15
 60125a8:	6e f6       	mov.l	@r15+,r14
 60125aa:	00 0b       	rts	
 60125ac:	00 09       	nop	
 60125ae:	00 09       	nop	
 60125b0:	06 02       	stc	sr,r6
 60125b2:	1d 78       	mov.l	r7,@(32,r13)

060125b4 <_Sprite_DeleteAll>:

void Sprite_DeleteAll() {
 60125b4:	2f e6       	mov.l	r14,@-r15
 60125b6:	7f fc       	add	#-4,r15
 60125b8:	6e f3       	mov	r15,r14
	for (int i = 0; i < SPRITE_LIST_SIZE; i++) {
 60125ba:	61 e3       	mov	r14,r1
 60125bc:	71 c4       	add	#-60,r1
 60125be:	e2 00       	mov	#0,r2
 60125c0:	11 2f       	mov.l	r2,@(60,r1)
 60125c2:	a0 13       	bra	60125ec <_Sprite_DeleteAll+0x38>
 60125c4:	00 09       	nop	
		sprites[i].display = 0;
 60125c6:	d3 11       	mov.l	601260c <_Sprite_DeleteAll+0x58>,r3	! 6021d84 <_sprites>
 60125c8:	61 e3       	mov	r14,r1
 60125ca:	71 c4       	add	#-60,r1
 60125cc:	52 1f       	mov.l	@(60,r1),r2
 60125ce:	61 23       	mov	r2,r1
 60125d0:	41 08       	shll2	r1
 60125d2:	41 08       	shll2	r1
 60125d4:	31 28       	sub	r2,r1
 60125d6:	41 08       	shll2	r1
 60125d8:	31 3c       	add	r3,r1
 60125da:	e2 00       	mov	#0,r2
 60125dc:	21 21       	mov.w	r2,@r1
	for (int i = 0; i < SPRITE_LIST_SIZE; i++) {
 60125de:	61 e3       	mov	r14,r1
 60125e0:	71 c4       	add	#-60,r1
 60125e2:	62 e3       	mov	r14,r2
 60125e4:	72 c4       	add	#-60,r2
 60125e6:	52 2f       	mov.l	@(60,r2),r2
 60125e8:	72 01       	add	#1,r2
 60125ea:	11 2f       	mov.l	r2,@(60,r1)
 60125ec:	61 e3       	mov	r14,r1
 60125ee:	71 c4       	add	#-60,r1
 60125f0:	52 1f       	mov.l	@(60,r1),r2
 60125f2:	e1 4f       	mov	#79,r1
 60125f4:	32 17       	cmp/gt	r1,r2
 60125f6:	8b e6       	bf	60125c6 <_Sprite_DeleteAll+0x12>
	}
	numSprites = 0;
 60125f8:	d1 05       	mov.l	6012610 <_Sprite_DeleteAll+0x5c>,r1	! 6021d78 <_numSprites>
 60125fa:	e2 00       	mov	#0,r2
 60125fc:	21 22       	mov.l	r2,@r1
}
 60125fe:	00 09       	nop	
 6012600:	7e 04       	add	#4,r14
 6012602:	6f e3       	mov	r14,r15
 6012604:	6e f6       	mov.l	@r15+,r14
 6012606:	00 0b       	rts	
 6012608:	00 09       	nop	
 601260a:	00 09       	nop	
 601260c:	06 02       	stc	sr,r6
 601260e:	1d 84       	mov.l	r8,@(16,r13)
 6012610:	06 02       	stc	sr,r6
 6012612:	1d 78       	mov.l	r7,@(32,r13)

06012614 <_main>:
	STATE_CUTSCENE,
	STATE_GAME,
	STATE_SOON,
} GAME_STATE;

int main() {
 6012614:	2f e6       	mov.l	r14,@-r15
 6012616:	4f 22       	sts.l	pr,@-r15
 6012618:	7f f4       	add	#-12,r15
 601261a:	6e f3       	mov	r15,r14
	frame = 0;
 601261c:	d1 2f       	mov.l	60126dc <_main+0xc8>,r1	! 6034374 <_frame>
 601261e:	e2 00       	mov	#0,r2
 6012620:	21 22       	mov.l	r2,@r1

	CdcStat cd_status;
//
//	set_imask(0); // enable interrupts
//
	SCL_Vdp2Init();
 6012622:	d1 2f       	mov.l	60126e0 <_main+0xcc>,r1	! 60194d4 <_SCL_Vdp2Init>
 6012624:	41 0b       	jsr	@r1
 6012626:	00 09       	nop	
//
	CD_Init();
 6012628:	d1 2e       	mov.l	60126e4 <_main+0xd0>,r1	! 6010224 <_CD_Init>
 601262a:	41 0b       	jsr	@r1
 601262c:	00 09       	nop	
	Sprite_Init();
 601262e:	d1 2e       	mov.l	60126e8 <_main+0xd4>,r1	! 6011884 <_Sprite_Init>
 6012630:	41 0b       	jsr	@r1
 6012632:	00 09       	nop	
	scroll_init();
 6012634:	d1 2d       	mov.l	60126ec <_main+0xd8>,r1	! 6010b20 <_scroll_init>
 6012636:	41 0b       	jsr	@r1
 6012638:	00 09       	nop	
	Print_Init();
 601263a:	d1 2d       	mov.l	60126f0 <_main+0xdc>,r1	! 6010808 <_Print_Init>
 601263c:	41 0b       	jsr	@r1
 601263e:	00 09       	nop	
	Print_Load();
 6012640:	d1 2c       	mov.l	60126f4 <_main+0xe0>,r1	! 60107e0 <_Print_Load>
 6012642:	41 0b       	jsr	@r1
 6012644:	00 09       	nop	
//	while (1) {
//		frame++;
//    }

    while (1) {
        frame++;
 6012646:	d1 25       	mov.l	60126dc <_main+0xc8>,r1	! 6034374 <_frame>
 6012648:	61 12       	mov.l	@r1,r1
 601264a:	62 13       	mov	r1,r2
 601264c:	72 01       	add	#1,r2
 601264e:	d1 23       	mov.l	60126dc <_main+0xc8>,r1	! 6034374 <_frame>
 6012650:	21 22       	mov.l	r2,@r1

		Print_String("Hello", 0, 0);
 6012652:	d1 29       	mov.l	60126f8 <_main+0xe4>,r1	! 601ee74
 6012654:	e6 00       	mov	#0,r6
 6012656:	e5 00       	mov	#0,r5
 6012658:	64 13       	mov	r1,r4
 601265a:	d1 28       	mov.l	60126fc <_main+0xe8>,r1	! 601094c <_Print_String>
 601265c:	41 0b       	jsr	@r1
 601265e:	00 09       	nop	
		Print_Num(frame, 1, 0);
 6012660:	d1 1e       	mov.l	60126dc <_main+0xc8>,r1	! 6034374 <_frame>
 6012662:	61 12       	mov.l	@r1,r1
 6012664:	e6 00       	mov	#0,r6
 6012666:	e5 01       	mov	#1,r5
 6012668:	64 13       	mov	r1,r4
 601266a:	d1 25       	mov.l	6012700 <_main+0xec>,r1	! 6010888 <_Print_Num>
 601266c:	41 0b       	jsr	@r1
 601266e:	00 09       	nop	

		// if the cd drive is opened, return to menu (don't do this with devcart
		// because leaving the door open skips the boot animation which is nice)
		if (!DEVCART_LOAD) {
			CDC_GetPeriStat(&cd_status);
 6012670:	61 e3       	mov	r14,r1
 6012672:	64 13       	mov	r1,r4
 6012674:	d1 23       	mov.l	6012704 <_main+0xf0>,r1	! 6012800 <_CDC_GetPeriStat>
 6012676:	41 0b       	jsr	@r1
 6012678:	00 09       	nop	
			if ((cd_status.status & 0xF) == CDC_ST_OPEN) {
 601267a:	61 e3       	mov	r14,r1
 601267c:	61 10       	mov.b	@r1,r1
 601267e:	61 1c       	extu.b	r1,r1
 6012680:	e2 0f       	mov	#15,r2
 6012682:	22 19       	and	r1,r2
 6012684:	e1 06       	mov	#6,r1
 6012686:	32 10       	cmp/eq	r1,r2
 6012688:	8b 03       	bf	6012692 <_main+0x7e>
				SYS_EXECDMP();
 601268a:	d1 1f       	mov.l	6012708 <_main+0xf4>,r1	! 600026c
 601268c:	61 12       	mov.l	@r1,r1
 601268e:	41 0b       	jsr	@r1
 6012690:	00 09       	nop	
			}
		}

		//if player hits A+B+C+Start, return to menu
		if (PadData1 == (PAD_A | PAD_B | PAD_C | PAD_S)) {
 6012692:	d1 1e       	mov.l	601270c <_main+0xf8>,r1	! 601f100 <_PadData1>
 6012694:	61 11       	mov.w	@r1,r1
 6012696:	62 1d       	extu.w	r1,r2
 6012698:	91 1e       	mov.w	60126d8 <_main+0xc4>,r1	! f00
 601269a:	32 10       	cmp/eq	r1,r2
 601269c:	8b 03       	bf	60126a6 <_main+0x92>
			if (DEVCART_LOAD) {
				Devcart_Reset();
			}
			else {
				SYS_EXECDMP();
 601269e:	d1 1a       	mov.l	6012708 <_main+0xf4>,r1	! 600026c
 60126a0:	61 12       	mov.l	@r1,r1
 60126a2:	41 0b       	jsr	@r1
 60126a4:	00 09       	nop	
			}
		}

		Sprite_StartDraw();
 60126a6:	d1 1a       	mov.l	6012710 <_main+0xfc>,r1	! 6011dec <_Sprite_StartDraw>
 60126a8:	41 0b       	jsr	@r1
 60126aa:	00 09       	nop	
		Sprite_DrawAll();
 60126ac:	d1 19       	mov.l	6012714 <_main+0x100>,r1	! 60122f4 <_Sprite_DrawAll>
 60126ae:	41 0b       	jsr	@r1
 60126b0:	00 09       	nop	
		if (DEBUG) {
			Print_Display();
 60126b2:	d1 19       	mov.l	6012718 <_main+0x104>,r1	! 6010a20 <_Print_Display>
 60126b4:	41 0b       	jsr	@r1
 60126b6:	00 09       	nop	
		}
		SPR_2CloseCommand();
 60126b8:	d1 18       	mov.l	601271c <_main+0x108>,r1	! 6018d28 <_SPR_2CloseCommand>
 60126ba:	41 0b       	jsr	@r1
 60126bc:	00 09       	nop	

		SCL_DisplayFrame();		// wait for vblank int to set flag to 0
 60126be:	d1 18       	mov.l	6012720 <_main+0x10c>,r1	! 601c358 <_SCL_DisplayFrame>
 60126c0:	41 0b       	jsr	@r1
 60126c2:	00 09       	nop	
		VblankFlg = 1;
 60126c4:	d1 17       	mov.l	6012724 <_main+0x110>,r1	! 601f12c <_VblankFlg>
 60126c6:	e2 01       	mov	#1,r2
 60126c8:	21 22       	mov.l	r2,@r1
		while (VblankFlg);
 60126ca:	00 09       	nop	
 60126cc:	d1 15       	mov.l	6012724 <_main+0x110>,r1	! 601f12c <_VblankFlg>
 60126ce:	61 12       	mov.l	@r1,r1
 60126d0:	21 18       	tst	r1,r1
 60126d2:	8b fb       	bf	60126cc <_main+0xb8>
        frame++;
 60126d4:	af b7       	bra	6012646 <_main+0x32>
 60126d6:	00 09       	nop	
 60126d8:	0f 00       	.word 0x0f00
 60126da:	00 09       	nop	
 60126dc:	06 03       	bsrf	r6
 60126de:	43 74       	.word 0x4374
 60126e0:	06 01       	.word 0x0601
 60126e2:	94 d4       	mov.w	601288e <_CDC_GetHwInfo+0x4a>,r4	! 69f6
 60126e4:	06 01       	.word 0x0601
 60126e6:	02 24       	mov.b	r2,@(r0,r2)
 60126e8:	06 01       	.word 0x0601
 60126ea:	18 84       	mov.l	r8,@(16,r8)
 60126ec:	06 01       	.word 0x0601
 60126ee:	0b 20       	.word 0x0b20
 60126f0:	06 01       	.word 0x0601
 60126f2:	08 08       	.word 0x0808
 60126f4:	06 01       	.word 0x0601
 60126f6:	07 e0       	.word 0x07e0
 60126f8:	06 01       	.word 0x0601
 60126fa:	ee 74       	mov	#116,r14
 60126fc:	06 01       	.word 0x0601
 60126fe:	09 4c       	mov.b	@(r0,r4),r9
 6012700:	06 01       	.word 0x0601
 6012702:	08 88       	.word 0x0888
 6012704:	06 01       	.word 0x0601
 6012706:	28 00       	mov.b	r0,@r8
 6012708:	06 00       	.word 0x0600
 601270a:	02 6c       	mov.b	@(r0,r6),r2
 601270c:	06 01       	.word 0x0601
 601270e:	f1 00       	.word 0xf100
 6012710:	06 01       	.word 0x0601
 6012712:	1d ec       	mov.l	r14,@(48,r13)
 6012714:	06 01       	.word 0x0601
 6012716:	22 f4       	mov.b	r15,@-r2
 6012718:	06 01       	.word 0x0601
 601271a:	0a 20       	.word 0x0a20
 601271c:	06 01       	.word 0x0601
 601271e:	8d 28       	bt.s	6012772 <_CDC_GetLastStat+0x6>
 6012720:	06 01       	.word 0x0601
 6012722:	c3 58       	trapa	#88
 6012724:	06 01       	.word 0x0601
 6012726:	f1 2c       	.word 0xf12c

06012728 <_CDC_GetCurStat>:
 6012728:	2f 86       	mov.l	r8,@-r15
 601272a:	e0 00       	mov	#0,r0
 601272c:	2f 96       	mov.l	r9,@-r15
 601272e:	e7 01       	mov	#1,r7
 6012730:	4f 22       	sts.l	pr,@-r15
 6012732:	69 43       	mov	r4,r9
 6012734:	7f f0       	add	#-16,r15
 6012736:	65 f3       	mov	r15,r5
 6012738:	25 01       	mov.w	r0,@r5
 601273a:	66 f3       	mov	r15,r6
 601273c:	81 51       	mov.w	r0,@(2,r5)
 601273e:	76 08       	add	#8,r6
 6012740:	81 52       	mov.w	r0,@(4,r5)
 6012742:	81 53       	mov.w	r0,@(6,r5)
 6012744:	d0 07       	mov.l	6012764 <_CDC_GetCurStat+0x3c>,r0	! 601cdc2 <_CDSUB_CdCmd>
 6012746:	40 0b       	jsr	@r0
 6012748:	e4 00       	mov	#0,r4
 601274a:	d1 07       	mov.l	6012768 <_CDC_GetCurStat+0x40>,r1	! 601cd90 <_CDSUB_RspToCdstat>
 601274c:	64 f3       	mov	r15,r4
 601274e:	68 03       	mov	r0,r8
 6012750:	65 93       	mov	r9,r5
 6012752:	41 0b       	jsr	@r1
 6012754:	74 08       	add	#8,r4
 6012756:	60 83       	mov	r8,r0
 6012758:	7f 10       	add	#16,r15
 601275a:	4f 26       	lds.l	@r15+,pr
 601275c:	69 f6       	mov.l	@r15+,r9
 601275e:	00 0b       	rts	
 6012760:	68 f6       	mov.l	@r15+,r8
 6012762:	00 09       	nop	
 6012764:	06 01       	.word 0x0601
 6012766:	cd c2       	and.b	#194,@(r0,gbr)
 6012768:	06 01       	.word 0x0601
 601276a:	cd 90       	and.b	#144,@(r0,gbr)

0601276c <_CDC_GetLastStat>:
 601276c:	d0 01       	mov.l	6012774 <_CDC_GetLastStat+0x8>,r0	! 601cd5c <_CDSUB_GetCdstat>
 601276e:	40 2b       	jmp	@r0
 6012770:	00 09       	nop	
 6012772:	00 09       	nop	
 6012774:	06 01       	.word 0x0601
 6012776:	cd 5c       	and.b	#92,@(r0,gbr)

06012778 <_getPeriRsp>:
 6012778:	2f 86       	mov.l	r8,@-r15
 601277a:	2f 96       	mov.l	r9,@-r15
 601277c:	69 43       	mov	r4,r9
 601277e:	2f a6       	mov.l	r10,@-r15
 6012780:	2f b6       	mov.l	r11,@-r15
 6012782:	2f c6       	mov.l	r12,@-r15
 6012784:	ec 64       	mov	#100,r12
 6012786:	2f d6       	mov.l	r13,@-r15
 6012788:	db 1c       	mov.l	60127fc <_getPeriRsp+0x84>,r11	! 601cc5c <_CDREG_ReadRsp>
 601278a:	4f 22       	sts.l	pr,@-r15
 601278c:	9d 34       	mov.w	60127f8 <_getPeriRsp+0x80>,r13	! ff0f
 601278e:	7f f8       	add	#-8,r15
 6012790:	0a 02       	stc	sr,r10
 6012792:	00 02       	stc	sr,r0
 6012794:	cb f0       	or	#240,r0
 6012796:	40 0e       	ldc	r0,sr
 6012798:	4b 0b       	jsr	@r11
 601279a:	64 93       	mov	r9,r4
 601279c:	64 f3       	mov	r15,r4
 601279e:	4b 0b       	jsr	@r11
 60127a0:	68 f3       	mov	r15,r8
 60127a2:	01 02       	stc	sr,r1
 60127a4:	60 a3       	mov	r10,r0
 60127a6:	21 d9       	and	r13,r1
 60127a8:	c9 f0       	and	#240,r0
 60127aa:	20 1b       	or	r1,r0
 60127ac:	40 0e       	ldc	r0,sr
 60127ae:	62 91       	mov.w	@r9,r2
 60127b0:	61 81       	mov.w	@r8,r1
 60127b2:	62 2d       	extu.w	r2,r2
 60127b4:	61 1d       	extu.w	r1,r1
 60127b6:	32 10       	cmp/eq	r1,r2
 60127b8:	8b 12       	bf	60127e0 <_getPeriRsp+0x68>
 60127ba:	85 91       	mov.w	@(2,r9),r0
 60127bc:	61 0d       	extu.w	r0,r1
 60127be:	85 81       	mov.w	@(2,r8),r0
 60127c0:	60 0d       	extu.w	r0,r0
 60127c2:	31 00       	cmp/eq	r0,r1
 60127c4:	8b 0c       	bf	60127e0 <_getPeriRsp+0x68>
 60127c6:	85 92       	mov.w	@(4,r9),r0
 60127c8:	61 0d       	extu.w	r0,r1
 60127ca:	85 82       	mov.w	@(4,r8),r0
 60127cc:	60 0d       	extu.w	r0,r0
 60127ce:	31 00       	cmp/eq	r0,r1
 60127d0:	8b 06       	bf	60127e0 <_getPeriRsp+0x68>
 60127d2:	85 93       	mov.w	@(6,r9),r0
 60127d4:	61 0d       	extu.w	r0,r1
 60127d6:	85 83       	mov.w	@(6,r8),r0
 60127d8:	60 0d       	extu.w	r0,r0
 60127da:	31 00       	cmp/eq	r0,r1
 60127dc:	8d 03       	bt.s	60127e6 <_getPeriRsp+0x6e>
 60127de:	e0 00       	mov	#0,r0
 60127e0:	4c 10       	dt	r12
 60127e2:	8f d5       	bf.s	6012790 <_getPeriRsp+0x18>
 60127e4:	e0 fd       	mov	#-3,r0
 60127e6:	7f 08       	add	#8,r15
 60127e8:	4f 26       	lds.l	@r15+,pr
 60127ea:	6d f6       	mov.l	@r15+,r13
 60127ec:	6c f6       	mov.l	@r15+,r12
 60127ee:	6b f6       	mov.l	@r15+,r11
 60127f0:	6a f6       	mov.l	@r15+,r10
 60127f2:	69 f6       	mov.l	@r15+,r9
 60127f4:	00 0b       	rts	
 60127f6:	68 f6       	mov.l	@r15+,r8
 60127f8:	ff 0f       	.word 0xff0f
 60127fa:	00 09       	nop	
 60127fc:	06 01       	.word 0x0601
 60127fe:	cc 5c       	tst.b	#92,@(r0,gbr)

06012800 <_CDC_GetPeriStat>:
 6012800:	2f 86       	mov.l	r8,@-r15
 6012802:	2f 96       	mov.l	r9,@-r15
 6012804:	69 43       	mov	r4,r9
 6012806:	4f 22       	sts.l	pr,@-r15
 6012808:	d0 0c       	mov.l	601283c <_CDC_GetPeriStat+0x3c>,r0	! 6012778 <_getPeriRsp>
 601280a:	7f f8       	add	#-8,r15
 601280c:	40 0b       	jsr	@r0
 601280e:	64 f3       	mov	r15,r4
 6012810:	20 08       	tst	r0,r0
 6012812:	8f 0c       	bf.s	601282e <_CDC_GetPeriStat+0x2e>
 6012814:	68 03       	mov	r0,r8
 6012816:	d1 0a       	mov.l	6012840 <_CDC_GetPeriStat+0x40>,r1	! 601cd90 <_CDSUB_RspToCdstat>
 6012818:	65 93       	mov	r9,r5
 601281a:	41 0b       	jsr	@r1
 601281c:	64 f3       	mov	r15,r4
 601281e:	91 0c       	mov.w	601283a <_CDC_GetPeriStat+0x3a>,r1	! ff
 6012820:	60 90       	mov.b	@r9,r0
 6012822:	60 0c       	extu.b	r0,r0
 6012824:	30 10       	cmp/eq	r1,r0
 6012826:	8d 01       	bt.s	601282c <_CDC_GetPeriStat+0x2c>
 6012828:	c8 20       	tst	#32,r0
 601282a:	8b 00       	bf	601282e <_CDC_GetPeriStat+0x2e>
 601282c:	e8 f8       	mov	#-8,r8
 601282e:	60 83       	mov	r8,r0
 6012830:	7f 08       	add	#8,r15
 6012832:	4f 26       	lds.l	@r15+,pr
 6012834:	69 f6       	mov.l	@r15+,r9
 6012836:	00 0b       	rts	
 6012838:	68 f6       	mov.l	@r15+,r8
 601283a:	00 ff       	mac.l	@r15+,@r0+
 601283c:	06 01       	.word 0x0601
 601283e:	27 78       	tst	r7,r7
 6012840:	06 01       	.word 0x0601
 6012842:	cd 90       	and.b	#144,@(r0,gbr)

06012844 <_CDC_GetHwInfo>:
 6012844:	2f 86       	mov.l	r8,@-r15
 6012846:	e0 00       	mov	#0,r0
 6012848:	2f 96       	mov.l	r9,@-r15
 601284a:	69 43       	mov	r4,r9
 601284c:	4f 22       	sts.l	pr,@-r15
 601284e:	e4 00       	mov	#0,r4
 6012850:	7f f0       	add	#-16,r15
 6012852:	65 f3       	mov	r15,r5
 6012854:	91 1e       	mov.w	6012894 <_CDC_GetHwInfo+0x50>,r1	! 100
 6012856:	68 f3       	mov	r15,r8
 6012858:	81 51       	mov.w	r0,@(2,r5)
 601285a:	78 08       	add	#8,r8
 601285c:	81 52       	mov.w	r0,@(4,r5)
 601285e:	66 83       	mov	r8,r6
 6012860:	81 53       	mov.w	r0,@(6,r5)
 6012862:	d0 0d       	mov.l	6012898 <_CDC_GetHwInfo+0x54>,r0	! 601ce24 <_CDSUB_UpdStatus>
 6012864:	40 0b       	jsr	@r0
 6012866:	25 11       	mov.w	r1,@r5
 6012868:	61 03       	mov	r0,r1
 601286a:	85 81       	mov.w	@(2,r8),r0
 601286c:	60 0d       	extu.w	r0,r0
 601286e:	80 91       	mov.b	r0,@(1,r9)
 6012870:	62 03       	mov	r0,r2
 6012872:	85 82       	mov.w	@(4,r8),r0
 6012874:	42 19       	shlr8	r2
 6012876:	80 92       	mov.b	r0,@(2,r9)
 6012878:	85 83       	mov.w	@(6,r8),r0
 601287a:	68 0d       	extu.w	r0,r8
 601287c:	60 83       	mov	r8,r0
 601287e:	40 19       	shlr8	r0
 6012880:	80 93       	mov.b	r0,@(3,r9)
 6012882:	60 83       	mov	r8,r0
 6012884:	80 94       	mov.b	r0,@(4,r9)
 6012886:	60 13       	mov	r1,r0
 6012888:	29 20       	mov.b	r2,@r9
 601288a:	7f 10       	add	#16,r15
 601288c:	4f 26       	lds.l	@r15+,pr
 601288e:	69 f6       	mov.l	@r15+,r9
 6012890:	00 0b       	rts	
 6012892:	68 f6       	mov.l	@r15+,r8
 6012894:	01 00       	.word 0x0100
 6012896:	00 09       	nop	
 6012898:	06 01       	.word 0x0601
 601289a:	ce 24       	xor.b	#36,@(r0,gbr)

0601289c <_CDC_TgetToc>:
 601289c:	2f 86       	mov.l	r8,@-r15
 601289e:	e0 00       	mov	#0,r0
 60128a0:	2f 96       	mov.l	r9,@-r15
 60128a2:	2f a6       	mov.l	r10,@-r15
 60128a4:	6a 43       	mov	r4,r10
 60128a6:	4f 22       	sts.l	pr,@-r15
 60128a8:	e4 00       	mov	#0,r4
 60128aa:	7f f0       	add	#-16,r15
 60128ac:	65 f3       	mov	r15,r5
 60128ae:	91 1b       	mov.w	60128e8 <_CDC_TgetToc+0x4c>,r1	! 200
 60128b0:	68 f3       	mov	r15,r8
 60128b2:	81 51       	mov.w	r0,@(2,r5)
 60128b4:	78 08       	add	#8,r8
 60128b6:	81 52       	mov.w	r0,@(4,r5)
 60128b8:	66 83       	mov	r8,r6
 60128ba:	81 53       	mov.w	r0,@(6,r5)
 60128bc:	d0 0b       	mov.l	60128ec <_CDC_TgetToc+0x50>,r0	! 601ce24 <_CDSUB_UpdStatus>
 60128be:	40 0b       	jsr	@r0
 60128c0:	25 11       	mov.w	r1,@r5
 60128c2:	20 08       	tst	r0,r0
 60128c4:	8f 09       	bf.s	60128da <_CDC_TgetToc+0x3e>
 60128c6:	69 03       	mov	r0,r9
 60128c8:	64 81       	mov.w	@r8,r4
 60128ca:	85 81       	mov.w	@(2,r8),r0
 60128cc:	64 4c       	extu.b	r4,r4
 60128ce:	60 0d       	extu.w	r0,r0
 60128d0:	44 28       	shll16	r4
 60128d2:	24 0b       	or	r0,r4
 60128d4:	d0 06       	mov.l	60128f0 <_CDC_TgetToc+0x54>,r0	! 601cbb8 <_CDREG_TgetData>
 60128d6:	40 0b       	jsr	@r0
 60128d8:	65 a3       	mov	r10,r5
 60128da:	60 93       	mov	r9,r0
 60128dc:	7f 10       	add	#16,r15
 60128de:	4f 26       	lds.l	@r15+,pr
 60128e0:	6a f6       	mov.l	@r15+,r10
 60128e2:	69 f6       	mov.l	@r15+,r9
 60128e4:	00 0b       	rts	
 60128e6:	68 f6       	mov.l	@r15+,r8
 60128e8:	02 00       	.word 0x0200
 60128ea:	00 09       	nop	
 60128ec:	06 01       	.word 0x0601
 60128ee:	ce 24       	xor.b	#36,@(r0,gbr)
 60128f0:	06 01       	.word 0x0601
 60128f2:	cb b8       	or	#184,r0

060128f4 <_CDC_GetSes>:
 60128f4:	2f 86       	mov.l	r8,@-r15
 60128f6:	e0 00       	mov	#0,r0
 60128f8:	4f 22       	sts.l	pr,@-r15
 60128fa:	68 53       	mov	r5,r8
 60128fc:	7f f0       	add	#-16,r15
 60128fe:	65 f3       	mov	r15,r5
 6012900:	91 10       	mov.w	6012924 <_CDC_GetSes+0x30>,r1	! 300
 6012902:	64 4c       	extu.b	r4,r4
 6012904:	81 51       	mov.w	r0,@(2,r5)
 6012906:	24 1b       	or	r1,r4
 6012908:	81 52       	mov.w	r0,@(4,r5)
 601290a:	66 f3       	mov	r15,r6
 601290c:	81 53       	mov.w	r0,@(6,r5)
 601290e:	76 08       	add	#8,r6
 6012910:	d0 05       	mov.l	6012928 <_CDC_GetSes+0x34>,r0	! 601ce24 <_CDSUB_UpdStatus>
 6012912:	25 41       	mov.w	r4,@r5
 6012914:	40 0b       	jsr	@r0
 6012916:	e4 00       	mov	#0,r4
 6012918:	51 f3       	mov.l	@(12,r15),r1
 601291a:	28 12       	mov.l	r1,@r8
 601291c:	7f 10       	add	#16,r15
 601291e:	4f 26       	lds.l	@r15+,pr
 6012920:	00 0b       	rts	
 6012922:	68 f6       	mov.l	@r15+,r8
 6012924:	03 00       	.word 0x0300
 6012926:	00 09       	nop	
 6012928:	06 01       	.word 0x0601
 601292a:	ce 24       	xor.b	#36,@(r0,gbr)

0601292c <_CDC_CdInit>:
 601292c:	2f 86       	mov.l	r8,@-r15
 601292e:	60 53       	mov	r5,r0
 6012930:	2f 96       	mov.l	r9,@-r15
 6012932:	46 18       	shll8	r6
 6012934:	4f 22       	sts.l	pr,@-r15
 6012936:	61 4c       	extu.b	r4,r1
 6012938:	7f f8       	add	#-8,r15
 601293a:	68 f3       	mov	r15,r8
 601293c:	81 81       	mov.w	r0,@(2,r8)
 601293e:	e0 00       	mov	#0,r0
 6012940:	92 25       	mov.w	601298e <_CDC_CdInit+0x62>,r2	! 400
 6012942:	81 82       	mov.w	r0,@(4,r8)
 6012944:	60 7c       	extu.b	r7,r0
 6012946:	20 6b       	or	r6,r0
 6012948:	81 83       	mov.w	r0,@(6,r8)
 601294a:	60 43       	mov	r4,r0
 601294c:	21 2b       	or	r2,r1
 601294e:	c9 81       	and	#129,r0
 6012950:	88 01       	cmp/eq	#1,r0
 6012952:	d9 10       	mov.l	6012994 <_CDC_CdInit+0x68>,r9	! 601ce30 <_CDSUB_UpdCdstat>
 6012954:	8f 16       	bf.s	6012984 <_CDC_CdInit+0x58>
 6012956:	28 11       	mov.w	r1,@r8
 6012958:	d1 0f       	mov.l	6012998 <_CDC_CdInit+0x6c>,r1	! 601ce4c <_CDSUB_SoftTimer>
 601295a:	94 19       	mov.w	6012990 <_CDC_CdInit+0x64>,r4	! 2904
 601295c:	41 0b       	jsr	@r1
 601295e:	00 09       	nop	
 6012960:	d1 0e       	mov.l	601299c <_CDC_CdInit+0x70>,r1	! 601cb84 <_CDREG_SetHirqFlag>
 6012962:	41 0b       	jsr	@r1
 6012964:	e4 41       	mov	#65,r4
 6012966:	65 f3       	mov	r15,r5
 6012968:	49 0b       	jsr	@r9
 601296a:	e4 40       	mov	#64,r4
 601296c:	20 08       	tst	r0,r0
 601296e:	8f 03       	bf.s	6012978 <_CDC_CdInit+0x4c>
 6012970:	68 03       	mov	r0,r8
 6012972:	d1 0b       	mov.l	60129a0 <_CDC_CdInit+0x74>,r1	! 601cb6c <_CDREG_InitHirqReq>
 6012974:	41 0b       	jsr	@r1
 6012976:	00 09       	nop	
 6012978:	60 83       	mov	r8,r0
 601297a:	7f 08       	add	#8,r15
 601297c:	4f 26       	lds.l	@r15+,pr
 601297e:	69 f6       	mov.l	@r15+,r9
 6012980:	00 0b       	rts	
 6012982:	68 f6       	mov.l	@r15+,r8
 6012984:	65 f3       	mov	r15,r5
 6012986:	49 0b       	jsr	@r9
 6012988:	e4 00       	mov	#0,r4
 601298a:	af f5       	bra	6012978 <_CDC_CdInit+0x4c>
 601298c:	68 03       	mov	r0,r8
 601298e:	04 00       	.word 0x0400
 6012990:	29 04       	mov.b	r0,@-r9
 6012992:	00 09       	nop	
 6012994:	06 01       	.word 0x0601
 6012996:	ce 30       	xor.b	#48,@(r0,gbr)
 6012998:	06 01       	.word 0x0601
 601299a:	ce 4c       	xor.b	#76,@(r0,gbr)
 601299c:	06 01       	.word 0x0601
 601299e:	cb 84       	or	#132,r0
 60129a0:	06 01       	.word 0x0601
 60129a2:	cb 6c       	or	#108,r0

060129a4 <_CDC_CdOpen>:
 60129a4:	4f 22       	sts.l	pr,@-r15
 60129a6:	e0 00       	mov	#0,r0
 60129a8:	7f f8       	add	#-8,r15
 60129aa:	65 f3       	mov	r15,r5
 60129ac:	91 0a       	mov.w	60129c4 <_CDC_CdOpen+0x20>,r1	! 500
 60129ae:	e4 00       	mov	#0,r4
 60129b0:	81 51       	mov.w	r0,@(2,r5)
 60129b2:	81 52       	mov.w	r0,@(4,r5)
 60129b4:	81 53       	mov.w	r0,@(6,r5)
 60129b6:	d0 04       	mov.l	60129c8 <_CDC_CdOpen+0x24>,r0	! 601ce30 <_CDSUB_UpdCdstat>
 60129b8:	40 0b       	jsr	@r0
 60129ba:	25 11       	mov.w	r1,@r5
 60129bc:	7f 08       	add	#8,r15
 60129be:	4f 26       	lds.l	@r15+,pr
 60129c0:	00 0b       	rts	
 60129c2:	00 09       	nop	
 60129c4:	05 00       	.word 0x0500
 60129c6:	00 09       	nop	
 60129c8:	06 01       	.word 0x0601
 60129ca:	ce 30       	xor.b	#48,@(r0,gbr)

060129cc <_CDC_DataEnd>:
 60129cc:	2f 86       	mov.l	r8,@-r15
 60129ce:	e0 00       	mov	#0,r0
 60129d0:	2f 96       	mov.l	r9,@-r15
 60129d2:	2f a6       	mov.l	r10,@-r15
 60129d4:	6a 43       	mov	r4,r10
 60129d6:	4f 22       	sts.l	pr,@-r15
 60129d8:	e4 00       	mov	#0,r4
 60129da:	7f f0       	add	#-16,r15
 60129dc:	65 f3       	mov	r15,r5
 60129de:	81 51       	mov.w	r0,@(2,r5)
 60129e0:	68 f3       	mov	r15,r8
 60129e2:	81 52       	mov.w	r0,@(4,r5)
 60129e4:	78 08       	add	#8,r8
 60129e6:	81 53       	mov.w	r0,@(6,r5)
 60129e8:	66 83       	mov	r8,r6
 60129ea:	91 14       	mov.w	6012a16 <_CDC_DataEnd+0x4a>,r1	! 600
 60129ec:	d0 0a       	mov.l	6012a18 <_CDC_DataEnd+0x4c>,r0	! 601ce24 <_CDSUB_UpdStatus>
 60129ee:	40 0b       	jsr	@r0
 60129f0:	25 11       	mov.w	r1,@r5
 60129f2:	61 81       	mov.w	@r8,r1
 60129f4:	69 03       	mov	r0,r9
 60129f6:	85 81       	mov.w	@(2,r8),r0
 60129f8:	61 1c       	extu.b	r1,r1
 60129fa:	60 0d       	extu.w	r0,r0
 60129fc:	41 28       	shll16	r1
 60129fe:	21 0b       	or	r0,r1
 6012a00:	2a 12       	mov.l	r1,@r10
 6012a02:	d1 06       	mov.l	6012a1c <_CDC_DataEnd+0x50>,r1	! 601cb60 <_CDREG_ClrHirqReq>
 6012a04:	41 0b       	jsr	@r1
 6012a06:	e4 fd       	mov	#-3,r4
 6012a08:	60 93       	mov	r9,r0
 6012a0a:	7f 10       	add	#16,r15
 6012a0c:	4f 26       	lds.l	@r15+,pr
 6012a0e:	6a f6       	mov.l	@r15+,r10
 6012a10:	69 f6       	mov.l	@r15+,r9
 6012a12:	00 0b       	rts	
 6012a14:	68 f6       	mov.l	@r15+,r8
 6012a16:	06 00       	.word 0x0600
 6012a18:	06 01       	.word 0x0601
 6012a1a:	ce 24       	xor.b	#36,@(r0,gbr)
 6012a1c:	06 01       	.word 0x0601
 6012a1e:	cb 60       	or	#96,r0

06012a20 <_CDC_DataReady>:
 6012a20:	2f 86       	mov.l	r8,@-r15
 6012a22:	24 48       	tst	r4,r4
 6012a24:	4f 22       	sts.l	pr,@-r15
 6012a26:	7f f8       	add	#-8,r15
 6012a28:	65 f3       	mov	r15,r5
 6012a2a:	d0 11       	mov.l	6012a70 <_CDC_DataReady+0x50>,r0	! 601cc14 <_CDREG_WaitHirq>
 6012a2c:	8d 0b       	bt.s	6012a46 <_CDC_DataReady+0x26>
 6012a2e:	75 04       	add	#4,r5
 6012a30:	94 1c       	mov.w	6012a6c <_CDC_DataReady+0x4c>,r4	! 82
 6012a32:	40 0b       	jsr	@r0
 6012a34:	00 09       	nop	
 6012a36:	20 08       	tst	r0,r0
 6012a38:	8d 13       	bt.s	6012a62 <_CDC_DataReady+0x42>
 6012a3a:	68 03       	mov	r0,r8
 6012a3c:	d0 0d       	mov.l	6012a74 <_CDC_DataReady+0x54>,r0	! 60129cc <_CDC_DataEnd>
 6012a3e:	40 0b       	jsr	@r0
 6012a40:	64 f3       	mov	r15,r4
 6012a42:	a0 06       	bra	6012a52 <_CDC_DataReady+0x32>
 6012a44:	00 09       	nop	
 6012a46:	40 0b       	jsr	@r0
 6012a48:	e4 02       	mov	#2,r4
 6012a4a:	20 08       	tst	r0,r0
 6012a4c:	8f f6       	bf.s	6012a3c <_CDC_DataReady+0x1c>
 6012a4e:	68 03       	mov	r0,r8
 6012a50:	e8 00       	mov	#0,r8
 6012a52:	d1 09       	mov.l	6012a78 <_CDC_DataReady+0x58>,r1	! 601cb60 <_CDREG_ClrHirqReq>
 6012a54:	41 0b       	jsr	@r1
 6012a56:	e4 fd       	mov	#-3,r4
 6012a58:	60 83       	mov	r8,r0
 6012a5a:	7f 08       	add	#8,r15
 6012a5c:	4f 26       	lds.l	@r15+,pr
 6012a5e:	00 0b       	rts	
 6012a60:	68 f6       	mov.l	@r15+,r8
 6012a62:	50 f1       	mov.l	@(4,r15),r0
 6012a64:	c8 80       	tst	#128,r0
 6012a66:	89 f3       	bt	6012a50 <_CDC_DataReady+0x30>
 6012a68:	af e8       	bra	6012a3c <_CDC_DataReady+0x1c>
 6012a6a:	e8 f8       	mov	#-8,r8
 6012a6c:	00 82       	.word 0x0082
 6012a6e:	00 09       	nop	
 6012a70:	06 01       	.word 0x0601
 6012a72:	cc 14       	tst.b	#20,@(r0,gbr)
 6012a74:	06 01       	.word 0x0601
 6012a76:	29 cc       	cmp/str	r12,r9
 6012a78:	06 01       	.word 0x0601
 6012a7a:	cb 60       	or	#96,r0

06012a7c <_analyPos>:
 6012a7c:	4f 22       	sts.l	pr,@-r15
 6012a7e:	e3 03       	mov	#3,r3
 6012a80:	62 42       	mov.l	@r4,r2
 6012a82:	32 36       	cmp/hi	r3,r2
 6012a84:	8d 0c       	bt.s	6012aa0 <_analyPos+0x24>
 6012a86:	61 43       	mov	r4,r1
 6012a88:	c7 01       	mova	6012a90 <_analyPos+0x14>,r0
 6012a8a:	02 2c       	mov.b	@(r0,r2),r2
 6012a8c:	02 23       	braf	r2
 6012a8e:	00 09       	nop	
 6012a90:	34 16       	cmp/hi	r1,r4
 6012a92:	04 2c       	mov.b	@(r0,r2),r4
 6012a94:	e2 00       	mov	#0,r2
 6012a96:	25 20       	mov.b	r2,@r5
 6012a98:	84 44       	mov.b	@(4,r4),r0
 6012a9a:	80 51       	mov.b	r0,@(1,r5)
 6012a9c:	84 45       	mov.b	@(5,r4),r0
 6012a9e:	80 52       	mov.b	r0,@(2,r5)
 6012aa0:	4f 26       	lds.l	@r15+,pr
 6012aa2:	00 0b       	rts	
 6012aa4:	00 09       	nop	
 6012aa6:	85 42       	mov.w	@(4,r4),r0
 6012aa8:	e2 80       	mov	#-128,r2
 6012aaa:	20 2b       	or	r2,r0
 6012aac:	d2 06       	mov.l	6012ac8 <_analyPos+0x4c>,r2	! 601df44 <___ashiftrt_r4_8>
 6012aae:	25 00       	mov.b	r0,@r5
 6012ab0:	42 0b       	jsr	@r2
 6012ab2:	54 41       	mov.l	@(4,r4),r4
 6012ab4:	60 43       	mov	r4,r0
 6012ab6:	80 51       	mov.b	r0,@(1,r5)
 6012ab8:	af f1       	bra	6012a9e <_analyPos+0x22>
 6012aba:	50 11       	mov.l	@(4,r1),r0
 6012abc:	e0 ff       	mov	#-1,r0
 6012abe:	25 00       	mov.b	r0,@r5
 6012ac0:	af ed       	bra	6012a9e <_analyPos+0x22>
 6012ac2:	80 51       	mov.b	r0,@(1,r5)
 6012ac4:	af fb       	bra	6012abe <_analyPos+0x42>
 6012ac6:	e0 00       	mov	#0,r0
 6012ac8:	06 01       	.word 0x0601
 6012aca:	df 44       	mov.l	6012bdc <_GFS_GetErrStat+0xc>,r15	! 410b0009

06012acc <_CDC_CdPlay>:
 6012acc:	2f 86       	mov.l	r8,@-r15
 6012ace:	e0 00       	mov	#0,r0
 6012ad0:	2f 96       	mov.l	r9,@-r15
 6012ad2:	69 43       	mov	r4,r9
 6012ad4:	2f a6       	mov.l	r10,@-r15
 6012ad6:	4f 22       	sts.l	pr,@-r15
 6012ad8:	91 1c       	mov.w	6012b14 <_CDC_CdPlay+0x48>,r1	! 1000
 6012ada:	7f f8       	add	#-8,r15
 6012adc:	da 0e       	mov.l	6012b18 <_CDC_CdPlay+0x4c>,r10	! 6012a7c <_analyPos>
 6012ade:	68 f3       	mov	r15,r8
 6012ae0:	65 f3       	mov	r15,r5
 6012ae2:	28 11       	mov.w	r1,@r8
 6012ae4:	75 01       	add	#1,r5
 6012ae6:	81 81       	mov.w	r0,@(2,r8)
 6012ae8:	4a 0b       	jsr	@r10
 6012aea:	81 83       	mov.w	r0,@(6,r8)
 6012aec:	60 93       	mov	r9,r0
 6012aee:	70 10       	add	#16,r0
 6012af0:	84 00       	mov.b	@(0,r0),r0
 6012af2:	65 f3       	mov	r15,r5
 6012af4:	40 18       	shll8	r0
 6012af6:	64 93       	mov	r9,r4
 6012af8:	81 82       	mov.w	r0,@(4,r8)
 6012afa:	75 05       	add	#5,r5
 6012afc:	4a 0b       	jsr	@r10
 6012afe:	74 08       	add	#8,r4
 6012b00:	d0 06       	mov.l	6012b1c <_CDC_CdPlay+0x50>,r0	! 601ce30 <_CDSUB_UpdCdstat>
 6012b02:	65 f3       	mov	r15,r5
 6012b04:	40 0b       	jsr	@r0
 6012b06:	e4 00       	mov	#0,r4
 6012b08:	7f 08       	add	#8,r15
 6012b0a:	4f 26       	lds.l	@r15+,pr
 6012b0c:	6a f6       	mov.l	@r15+,r10
 6012b0e:	69 f6       	mov.l	@r15+,r9
 6012b10:	00 0b       	rts	
 6012b12:	68 f6       	mov.l	@r15+,r8
 6012b14:	10 00       	mov.l	r0,@(0,r0)
 6012b16:	00 09       	nop	
 6012b18:	06 01       	.word 0x0601
 6012b1a:	2a 7c       	cmp/str	r7,r10
 6012b1c:	06 01       	.word 0x0601
 6012b1e:	ce 30       	xor.b	#48,@(r0,gbr)

06012b20 <_CDC_CdSeek>:
 6012b20:	2f 86       	mov.l	r8,@-r15
 6012b22:	e0 00       	mov	#0,r0
 6012b24:	4f 22       	sts.l	pr,@-r15
 6012b26:	91 11       	mov.w	6012b4c <_CDC_CdSeek+0x2c>,r1	! 1100
 6012b28:	7f f8       	add	#-8,r15
 6012b2a:	68 f3       	mov	r15,r8
 6012b2c:	28 11       	mov.w	r1,@r8
 6012b2e:	65 f3       	mov	r15,r5
 6012b30:	d1 07       	mov.l	6012b50 <_CDC_CdSeek+0x30>,r1	! 6012a7c <_analyPos>
 6012b32:	75 01       	add	#1,r5
 6012b34:	81 81       	mov.w	r0,@(2,r8)
 6012b36:	81 82       	mov.w	r0,@(4,r8)
 6012b38:	41 0b       	jsr	@r1
 6012b3a:	81 83       	mov.w	r0,@(6,r8)
 6012b3c:	d0 05       	mov.l	6012b54 <_CDC_CdSeek+0x34>,r0	! 601ce30 <_CDSUB_UpdCdstat>
 6012b3e:	65 f3       	mov	r15,r5
 6012b40:	40 0b       	jsr	@r0
 6012b42:	e4 00       	mov	#0,r4
 6012b44:	7f 08       	add	#8,r15
 6012b46:	4f 26       	lds.l	@r15+,pr
 6012b48:	00 0b       	rts	
 6012b4a:	68 f6       	mov.l	@r15+,r8
 6012b4c:	11 00       	mov.l	r0,@(0,r1)
 6012b4e:	00 09       	nop	
 6012b50:	06 01       	.word 0x0601
 6012b52:	2a 7c       	cmp/str	r7,r10
 6012b54:	06 01       	.word 0x0601
 6012b56:	ce 30       	xor.b	#48,@(r0,gbr)

06012b58 <_CDC_CdScan>:
 6012b58:	4f 22       	sts.l	pr,@-r15
 6012b5a:	e0 00       	mov	#0,r0
 6012b5c:	7f f8       	add	#-8,r15
 6012b5e:	65 f3       	mov	r15,r5
 6012b60:	91 0c       	mov.w	6012b7c <_CDC_CdScan+0x24>,r1	! 1200
 6012b62:	64 4c       	extu.b	r4,r4
 6012b64:	81 51       	mov.w	r0,@(2,r5)
 6012b66:	24 1b       	or	r1,r4
 6012b68:	81 52       	mov.w	r0,@(4,r5)
 6012b6a:	81 53       	mov.w	r0,@(6,r5)
 6012b6c:	d0 04       	mov.l	6012b80 <_CDC_CdScan+0x28>,r0	! 601ce30 <_CDSUB_UpdCdstat>
 6012b6e:	25 41       	mov.w	r4,@r5
 6012b70:	40 0b       	jsr	@r0
 6012b72:	e4 00       	mov	#0,r4
 6012b74:	7f 08       	add	#8,r15
 6012b76:	4f 26       	lds.l	@r15+,pr
 6012b78:	00 0b       	rts	
 6012b7a:	00 09       	nop	
 6012b7c:	12 00       	mov.l	r0,@(0,r2)
 6012b7e:	00 09       	nop	
 6012b80:	06 01       	.word 0x0601
 6012b82:	ce 30       	xor.b	#48,@(r0,gbr)

06012b84 <_gfs_recovRdErr>:
 6012b84:	51 4a       	mov.l	@(40,r4),r1
 6012b86:	2f 86       	mov.l	r8,@-r15
 6012b88:	21 18       	tst	r1,r1
 6012b8a:	4f 22       	sts.l	pr,@-r15
 6012b8c:	8f 07       	bf.s	6012b9e <_gfs_recovRdErr+0x1a>
 6012b8e:	68 43       	mov	r4,r8
 6012b90:	d0 05       	mov.l	6012ba8 <_gfs_recovRdErr+0x24>,r0	! 6015c6a <_GFCF_Recover>
 6012b92:	40 0b       	jsr	@r0
 6012b94:	74 0c       	add	#12,r4
 6012b96:	88 02       	cmp/eq	#2,r0
 6012b98:	8f 01       	bf.s	6012b9e <_gfs_recovRdErr+0x1a>
 6012b9a:	e1 01       	mov	#1,r1
 6012b9c:	18 12       	mov.l	r1,@(8,r8)
 6012b9e:	50 82       	mov.l	@(8,r8),r0
 6012ba0:	4f 26       	lds.l	@r15+,pr
 6012ba2:	00 0b       	rts	
 6012ba4:	68 f6       	mov.l	@r15+,r8
 6012ba6:	00 09       	nop	
 6012ba8:	06 01       	.word 0x0601
 6012baa:	5c 6a       	mov.l	@(40,r6),r12

06012bac <_GFS_SetErrFunc>:
 6012bac:	d1 07       	mov.l	6012bcc <_GFS_SetErrFunc+0x20>,r1	! 603437c <_gfs_mng_ptr>
 6012bae:	61 12       	mov.l	@r1,r1
 6012bb0:	62 13       	mov	r1,r2
 6012bb2:	72 7c       	add	#124,r2
 6012bb4:	12 4f       	mov.l	r4,@(60,r2)
 6012bb6:	92 06       	mov.w	6012bc6 <_GFS_SetErrFunc+0x1a>,r2	! bc
 6012bb8:	32 1c       	add	r1,r2
 6012bba:	22 52       	mov.l	r5,@r2
 6012bbc:	92 04       	mov.w	6012bc8 <_GFS_SetErrFunc+0x1c>,r2	! b8
 6012bbe:	31 2c       	add	r2,r1
 6012bc0:	e2 00       	mov	#0,r2
 6012bc2:	00 0b       	rts	
 6012bc4:	11 22       	mov.l	r2,@(8,r1)
 6012bc6:	00 bc       	mov.b	@(r0,r11),r0
 6012bc8:	00 b8       	.word 0x00b8
 6012bca:	00 09       	nop	
 6012bcc:	06 03       	bsrf	r6
 6012bce:	43 7c       	.word 0x437c

06012bd0 <_GFS_GetErrStat>:
 6012bd0:	d1 05       	mov.l	6012be8 <_GFS_GetErrStat+0x18>,r1	! 603437c <_gfs_mng_ptr>
 6012bd2:	4f 22       	sts.l	pr,@-r15
 6012bd4:	65 12       	mov.l	@r1,r5
 6012bd6:	91 06       	mov.w	6012be6 <_GFS_GetErrStat+0x16>,r1	! b8
 6012bd8:	35 1c       	add	r1,r5
 6012bda:	d1 04       	mov.l	6012bec <_GFS_GetErrStat+0x1c>,r1	! 601e080 <___movmemSI12>
 6012bdc:	41 0b       	jsr	@r1
 6012bde:	00 09       	nop	
 6012be0:	4f 26       	lds.l	@r15+,pr
 6012be2:	00 0b       	rts	
 6012be4:	00 09       	nop	
 6012be6:	00 b8       	.word 0x00b8
 6012be8:	06 03       	bsrf	r6
 6012bea:	43 7c       	.word 0x437c
 6012bec:	06 01       	.word 0x0601
 6012bee:	e0 80       	mov	#-128,r0

06012bf0 <_gfs_mngSetupFuncTbl>:
 6012bf0:	d1 05       	mov.l	6012c08 <_gfs_mngSetupFuncTbl+0x18>,r1	! 603437c <_gfs_mng_ptr>
 6012bf2:	d3 06       	mov.l	6012c0c <_gfs_mngSetupFuncTbl+0x1c>,r3	! 6016084 <_GFCF_FlowInBuf>
 6012bf4:	62 12       	mov.l	@r1,r2
 6012bf6:	12 31       	mov.l	r3,@(4,r2)
 6012bf8:	61 23       	mov	r2,r1
 6012bfa:	d2 05       	mov.l	6012c10 <_gfs_mngSetupFuncTbl+0x20>,r2	! 6015d44 <_GFCF_StopInBuf>
 6012bfc:	11 22       	mov.l	r2,@(8,r1)
 6012bfe:	d2 05       	mov.l	6012c14 <_gfs_mngSetupFuncTbl+0x24>,r2	! 6015cb8 <_GFCF_Seek>
 6012c00:	11 23       	mov.l	r2,@(12,r1)
 6012c02:	d2 05       	mov.l	6012c18 <_gfs_mngSetupFuncTbl+0x28>,r2	! 6015cac <_GFCF_Tell>
 6012c04:	00 0b       	rts	
 6012c06:	11 24       	mov.l	r2,@(16,r1)
 6012c08:	06 03       	bsrf	r6
 6012c0a:	43 7c       	.word 0x437c
 6012c0c:	06 01       	.word 0x0601
 6012c0e:	60 84       	mov.b	@r8+,r0
 6012c10:	06 01       	.word 0x0601
 6012c12:	5d 44       	mov.l	@(16,r4),r13
 6012c14:	06 01       	.word 0x0601
 6012c16:	5c b8       	mov.l	@(32,r11),r12
 6012c18:	06 01       	.word 0x0601
 6012c1a:	5c ac       	mov.l	@(48,r10),r12

06012c1c <_gfs_mngInitWork>:
 6012c1c:	2f 86       	mov.l	r8,@-r15
 6012c1e:	2f 96       	mov.l	r9,@-r15
 6012c20:	69 43       	mov	r4,r9
 6012c22:	d1 1c       	mov.l	6012c94 <_gfs_mngInitWork+0x78>,r1	! 603437c <_gfs_mng_ptr>
 6012c24:	4f 22       	sts.l	pr,@-r15
 6012c26:	68 12       	mov.l	@r1,r8
 6012c28:	d1 1b       	mov.l	6012c98 <_gfs_mngInitWork+0x7c>,r1	! 6012bf0 <_gfs_mngSetupFuncTbl>
 6012c2a:	41 0b       	jsr	@r1
 6012c2c:	28 42       	mov.l	r4,@r8
 6012c2e:	62 83       	mov	r8,r2
 6012c30:	e1 00       	mov	#0,r1
 6012c32:	72 7c       	add	#124,r2
 6012c34:	12 16       	mov.l	r1,@(24,r2)
 6012c36:	49 11       	cmp/pz	r9
 6012c38:	12 1e       	mov.l	r1,@(56,r2)
 6012c3a:	e3 00       	mov	#0,r3
 6012c3c:	12 1b       	mov.l	r1,@(44,r2)
 6012c3e:	12 1d       	mov.l	r1,@(52,r2)
 6012c40:	12 1c       	mov.l	r1,@(48,r2)
 6012c42:	12 1f       	mov.l	r1,@(60,r2)
 6012c44:	92 20       	mov.w	6012c88 <_gfs_mngInitWork+0x6c>,r2	! bc
 6012c46:	32 8c       	add	r8,r2
 6012c48:	12 12       	mov.l	r1,@(8,r2)
 6012c4a:	61 93       	mov	r9,r1
 6012c4c:	92 1d       	mov.w	6012c8a <_gfs_mngInitWork+0x6e>,r2	! c60
 6012c4e:	71 01       	add	#1,r1
 6012c50:	8d 01       	bt.s	6012c56 <_gfs_mngInitWork+0x3a>
 6012c52:	32 8c       	add	r8,r2
 6012c54:	e1 01       	mov	#1,r1
 6012c56:	41 10       	dt	r1
 6012c58:	8b 12       	bf	6012c80 <_gfs_mngInitWork+0x64>
 6012c5a:	92 17       	mov.w	6012c8c <_gfs_mngInitWork+0x70>,r2	! 438
 6012c5c:	e1 00       	mov	#0,r1
 6012c5e:	32 8c       	add	r8,r2
 6012c60:	22 12       	mov.l	r1,@r2
 6012c62:	12 13       	mov.l	r1,@(12,r2)
 6012c64:	12 12       	mov.l	r1,@(8,r2)
 6012c66:	12 11       	mov.l	r1,@(4,r2)
 6012c68:	12 14       	mov.l	r1,@(16,r2)
 6012c6a:	92 10       	mov.w	6012c8e <_gfs_mngInitWork+0x72>,r2	! 44c
 6012c6c:	38 2c       	add	r2,r8
 6012c6e:	28 12       	mov.l	r1,@r8
 6012c70:	18 13       	mov.l	r1,@(12,r8)
 6012c72:	18 12       	mov.l	r1,@(8,r8)
 6012c74:	18 11       	mov.l	r1,@(4,r8)
 6012c76:	18 14       	mov.l	r1,@(16,r8)
 6012c78:	4f 26       	lds.l	@r15+,pr
 6012c7a:	69 f6       	mov.l	@r15+,r9
 6012c7c:	00 0b       	rts	
 6012c7e:	68 f6       	mov.l	@r15+,r8
 6012c80:	97 06       	mov.w	6012c90 <_gfs_mngInitWork+0x74>,r7	! a8
 6012c82:	22 32       	mov.l	r3,@r2
 6012c84:	af e7       	bra	6012c56 <_gfs_mngInitWork+0x3a>
 6012c86:	32 7c       	add	r7,r2
 6012c88:	00 bc       	mov.b	@(r0,r11),r0
 6012c8a:	0c 60       	.word 0x0c60
 6012c8c:	04 38       	.word 0x0438
 6012c8e:	04 4c       	mov.b	@(r0,r4),r4
 6012c90:	00 a8       	.word 0x00a8
 6012c92:	00 09       	nop	
 6012c94:	06 03       	bsrf	r6
 6012c96:	43 7c       	.word 0x437c
 6012c98:	06 01       	.word 0x0601
 6012c9a:	2b f0       	mov.b	r15,@r11

06012c9c <_gfs_mngGetNumFile>:
 6012c9c:	2f 86       	mov.l	r8,@-r15
 6012c9e:	e8 00       	mov	#0,r8
 6012ca0:	2f 96       	mov.l	r9,@-r15
 6012ca2:	69 43       	mov	r4,r9
 6012ca4:	2f a6       	mov.l	r10,@-r15
 6012ca6:	2f b6       	mov.l	r11,@-r15
 6012ca8:	da 10       	mov.l	6012cec <_gfs_mngGetNumFile+0x50>,r10	! 6016200 <_GFDR_GetAtrDirName>
 6012caa:	db 11       	mov.l	6012cf0 <_gfs_mngGetNumFile+0x54>,r11	! 60161f0 <_GFDR_GetAtrDirId>
 6012cac:	4f 22       	sts.l	pr,@-r15
 6012cae:	51 91       	mov.l	@(4,r9),r1
 6012cb0:	31 87       	cmp/gt	r8,r1
 6012cb2:	8f 09       	bf.s	6012cc8 <_gfs_mngGetNumFile+0x2c>
 6012cb4:	64 83       	mov	r8,r4
 6012cb6:	61 92       	mov.l	@r9,r1
 6012cb8:	21 18       	tst	r1,r1
 6012cba:	8f 0e       	bf.s	6012cda <_gfs_mngGetNumFile+0x3e>
 6012cbc:	55 92       	mov.l	@(8,r9),r5
 6012cbe:	4b 0b       	jsr	@r11
 6012cc0:	00 09       	nop	
 6012cc2:	c8 01       	tst	#1,r0
 6012cc4:	89 0d       	bt	6012ce2 <_gfs_mngGetNumFile+0x46>
 6012cc6:	51 91       	mov.l	@(4,r9),r1
 6012cc8:	31 83       	cmp/ge	r8,r1
 6012cca:	8d 0c       	bt.s	6012ce6 <_gfs_mngGetNumFile+0x4a>
 6012ccc:	e0 00       	mov	#0,r0
 6012cce:	4f 26       	lds.l	@r15+,pr
 6012cd0:	6b f6       	mov.l	@r15+,r11
 6012cd2:	6a f6       	mov.l	@r15+,r10
 6012cd4:	69 f6       	mov.l	@r15+,r9
 6012cd6:	00 0b       	rts	
 6012cd8:	68 f6       	mov.l	@r15+,r8
 6012cda:	4a 0b       	jsr	@r10
 6012cdc:	00 09       	nop	
 6012cde:	af f1       	bra	6012cc4 <_gfs_mngGetNumFile+0x28>
 6012ce0:	c8 01       	tst	#1,r0
 6012ce2:	af e4       	bra	6012cae <_gfs_mngGetNumFile+0x12>
 6012ce4:	78 01       	add	#1,r8
 6012ce6:	60 83       	mov	r8,r0
 6012ce8:	af f1       	bra	6012cce <_gfs_mngGetNumFile+0x32>
 6012cea:	70 01       	add	#1,r0
 6012cec:	06 01       	.word 0x0601
 6012cee:	62 00       	mov.b	@r0,r2
 6012cf0:	06 01       	.word 0x0601
 6012cf2:	61 f0       	mov.b	@r15,r1

06012cf4 <_GFS_mngAllocGrp>:
 6012cf4:	d1 0e       	mov.l	6012d30 <_GFS_mngAllocGrp+0x3c>,r1	! 603437c <_gfs_mng_ptr>
 6012cf6:	e2 00       	mov	#0,r2
 6012cf8:	90 17       	mov.w	6012d2a <_GFS_mngAllocGrp+0x36>,r0	! c60
 6012cfa:	61 12       	mov.l	@r1,r1
 6012cfc:	63 12       	mov.l	@r1,r3
 6012cfe:	30 1c       	add	r1,r0
 6012d00:	43 11       	cmp/pz	r3
 6012d02:	61 33       	mov	r3,r1
 6012d04:	8d 01       	bt.s	6012d0a <_GFS_mngAllocGrp+0x16>
 6012d06:	71 01       	add	#1,r1
 6012d08:	e1 01       	mov	#1,r1
 6012d0a:	41 10       	dt	r1
 6012d0c:	8f 03       	bf.s	6012d16 <_GFS_mngAllocGrp+0x22>
 6012d0e:	33 20       	cmp/eq	r2,r3
 6012d10:	8b 04       	bf	6012d1c <_GFS_mngAllocGrp+0x28>
 6012d12:	00 0b       	rts	
 6012d14:	e0 00       	mov	#0,r0
 6012d16:	67 02       	mov.l	@r0,r7
 6012d18:	27 78       	tst	r7,r7
 6012d1a:	8b 02       	bf	6012d22 <_GFS_mngAllocGrp+0x2e>
 6012d1c:	e1 01       	mov	#1,r1
 6012d1e:	00 0b       	rts	
 6012d20:	20 12       	mov.l	r1,@r0
 6012d22:	97 03       	mov.w	6012d2c <_GFS_mngAllocGrp+0x38>,r7	! a8
 6012d24:	72 01       	add	#1,r2
